Component: Arm Compiler for Embedded 6.21 Tool: armlink [5ec1fa00]

==============================================================================

Section Cross References

    main.o(.text.main) refers to ti_msp_dl_config.o(.text.SYSCFG_DL_init) for SYSCFG_DL_init
    main.o(.text.main) refers to uart.o(.text.UART_NVIC_Init) for UART_NVIC_Init
    main.o(.text.main) refers to exti.o(.text.EXTI_Init) for EXTI_Init
    main.o(.text.main) refers to dev_car.o(.text.DEV_CAR_Init) for DEV_CAR_Init
    main.o(.text.main) refers to oled.o(.text.OLED_Init) for OLED_Init
    main.o(.text.main) refers to delay.o(.text.delay_ms) for delay_ms
    main.o(.text.main) refers to oled.o(.text.OLED_CLS) for OLED_CLS
    main.o(.text.main) refers to my_task.o(.text.init_task) for init_task
    main.o(.text.main) refers to ui_.o(.text.test1) for test1
    main.o(.text.main) refers to ui_.o(.text.UI_updata) for UI_updata
    main.o(.text.main) refers to oled_buffer.o(.text.UpdateScreenDisplay) for UpdateScreenDisplay
    main.o(.text.main) refers to led.o(.text.LED_OFF) for LED_OFF
    main.o(.text.main) refers to buffer.o(.text.BUFF_pop_by_Protocol) for BUFF_pop_by_Protocol
    main.o(.text.main) refers to dflti.o(.text) for __aeabi_i2d
    main.o(.text.main) refers to dmul.o(.text) for __aeabi_dmul
    main.o(.text.main) refers to exti.o(.text.bsp_GetKey) for bsp_GetKey
    main.o(.text.main) refers to ui_.o(.text.UI_enter) for UI_enter
    main.o(.text.main) refers to ui_.o(.text.UI_back) for UI_back
    main.o(.text.main) refers to ui_.o(.text.UI_next) for UI_next
    main.o(.text.main) refers to ui_.o(.text.UI_prev) for UI_prev
    main.o(.text.main) refers to uart.o(.bss.U2_buffer) for U2_buffer
    main.o(.text.main) refers to main.o(.bss.Angle) for Angle
    main.o(.text.main) refers to led.o(.bss.led_state) for led_state
    main.o(.ARM.exidx.text.main) refers to main.o(.text.main) for [Anonymous Symbol]
    startup_mspm0g350x_uvision.o(STACK) refers (Special) to heapauxi.o(.text) for __use_two_region_memory
    startup_mspm0g350x_uvision.o(HEAP) refers (Special) to heapauxi.o(.text) for __use_two_region_memory
    startup_mspm0g350x_uvision.o(RESET) refers (Special) to heapauxi.o(.text) for __use_two_region_memory
    startup_mspm0g350x_uvision.o(RESET) refers to startup_mspm0g350x_uvision.o(STACK) for __initial_sp
    startup_mspm0g350x_uvision.o(RESET) refers to startup_mspm0g350x_uvision.o(.text) for Reset_Handler
    startup_mspm0g350x_uvision.o(RESET) refers to delay.o(.text.SysTick_Handler) for SysTick_Handler
    startup_mspm0g350x_uvision.o(RESET) refers to exti.o(.text.GROUP1_IRQHandler) for GROUP1_IRQHandler
    startup_mspm0g350x_uvision.o(RESET) refers to uart.o(.text.UART2_IRQHandler) for UART2_IRQHandler
    startup_mspm0g350x_uvision.o(RESET) refers to time.o(.text.TIMG0_IRQHandler) for TIMG0_IRQHandler
    startup_mspm0g350x_uvision.o(RESET) refers to dev_i2c.o(.text.I2C0_IRQHandler) for I2C0_IRQHandler
    startup_mspm0g350x_uvision.o(.text) refers (Special) to heapauxi.o(.text) for __use_two_region_memory
    startup_mspm0g350x_uvision.o(.text) refers to __main.o(!!!main) for __main
    startup_mspm0g350x_uvision.o(.text) refers to startup_mspm0g350x_uvision.o(HEAP) for Heap_Mem
    startup_mspm0g350x_uvision.o(.text) refers to startup_mspm0g350x_uvision.o(STACK) for Stack_Mem
    my_task.o(.text.follow_angle_FAST) refers to daddsub.o(.text) for __aeabi_dsub
    my_task.o(.text.follow_angle_FAST) refers to dcmp.o(i._dleq) for __aeabi_dcmple
    my_task.o(.text.follow_angle_FAST) refers to dcmp.o(i._dgeq) for __aeabi_dcmpge
    my_task.o(.text.follow_angle_FAST) refers to dmul.o(.text) for __aeabi_dmul
    my_task.o(.text.follow_angle_FAST) refers to dfixi.o(.text) for __aeabi_d2iz
    my_task.o(.text.follow_angle_FAST) refers to dflti.o(.text) for __aeabi_i2d
    my_task.o(.text.follow_angle_FAST) refers to ddiv.o(.text) for __aeabi_ddiv
    my_task.o(.text.follow_angle_FAST) refers to dev_car.o(.text.DEV_CAR_Set_Speed) for DEV_CAR_Set_Speed
    my_task.o(.text.follow_angle_FAST) refers to my_task.o(.bss.Follow_Angle_Count) for Follow_Angle_Count
    my_task.o(.text.follow_angle_FAST) refers to my_task.o(.bss.Aim_Angle) for Aim_Angle
    my_task.o(.text.follow_angle_FAST) refers to main.o(.bss.Angle) for Angle
    my_task.o(.text.follow_angle_FAST) refers to my_task.o(.bss.CCR) for [Anonymous Symbol]
    my_task.o(.ARM.exidx.text.follow_angle_FAST) refers to my_task.o(.text.follow_angle_FAST) for [Anonymous Symbol]
    my_task.o(.text.init_task) refers to pid.o(.text.PID_Initialize) for PID_Initialize
    my_task.o(.text.init_task) refers to my_task.o(.bss.pid_follow_line_fast) for pid_follow_line_fast
    my_task.o(.text.init_task) refers to my_task.o(.bss.pid_follow_line) for pid_follow_line
    my_task.o(.text.init_task) refers to my_task.o(.bss.pid_follow_angle) for pid_follow_angle
    my_task.o(.text.init_task) refers to my_task.o(.bss.pid_turn_angle) for pid_turn_angle
    my_task.o(.ARM.exidx.text.init_task) refers to my_task.o(.text.init_task) for [Anonymous Symbol]
    my_task.o(.text.follow_line) refers to fflti.o(.text) for __aeabi_i2f
    my_task.o(.text.follow_line) refers to pid.o(.text.PID_Realize) for PID_Realize
    my_task.o(.text.follow_line) refers to dflti.o(.text) for __aeabi_i2d
    my_task.o(.text.follow_line) refers to dcmp.o(i._dls) for __aeabi_dcmplt
    my_task.o(.text.follow_line) refers to dcmp.o(i._dgr) for __aeabi_dcmpgt
    my_task.o(.text.follow_line) refers to ddiv.o(.text) for __aeabi_ddiv
    my_task.o(.text.follow_line) refers to dfixi.o(.text) for __aeabi_d2iz
    my_task.o(.text.follow_line) refers to dev_car.o(.text.DEV_CAR_Set_Speed) for DEV_CAR_Set_Speed
    my_task.o(.text.follow_line) refers to dev_grayscale.o(.bss.gray_value) for gray_value
    my_task.o(.text.follow_line) refers to my_task.o(.bss.pid_follow_line) for pid_follow_line
    my_task.o(.text.follow_line) refers to my_task.o(.bss.CCR) for [Anonymous Symbol]
    my_task.o(.text.follow_line) refers to my_task.o(.bss.follow_line.MAX_CCR) for [Anonymous Symbol]
    my_task.o(.ARM.exidx.text.follow_line) refers to my_task.o(.text.follow_line) for [Anonymous Symbol]
    my_task.o(.text.follow_angle) refers to daddsub.o(.text) for __aeabi_dsub
    my_task.o(.text.follow_angle) refers to dcmp.o(i._dleq) for __aeabi_dcmple
    my_task.o(.text.follow_angle) refers to dcmp.o(i._dgeq) for __aeabi_dcmpge
    my_task.o(.text.follow_angle) refers to dmul.o(.text) for __aeabi_dmul
    my_task.o(.text.follow_angle) refers to dfixi.o(.text) for __aeabi_d2iz
    my_task.o(.text.follow_angle) refers to dev_car.o(.text.DEV_CAR_Set_Speed) for DEV_CAR_Set_Speed
    my_task.o(.text.follow_angle) refers to my_task.o(.bss.Aim_Angle) for Aim_Angle
    my_task.o(.text.follow_angle) refers to main.o(.bss.Angle) for Angle
    my_task.o(.text.follow_angle) refers to my_task.o(.bss.CCR) for [Anonymous Symbol]
    my_task.o(.ARM.exidx.text.follow_angle) refers to my_task.o(.text.follow_angle) for [Anonymous Symbol]
    my_task.o(.text.turn_angle) refers to daddsub.o(.text) for __aeabi_dsub
    my_task.o(.text.turn_angle) refers to dcmp.o(i._dleq) for __aeabi_dcmple
    my_task.o(.text.turn_angle) refers to dcmp.o(i._dgeq) for __aeabi_dcmpge
    my_task.o(.text.turn_angle) refers to dmul.o(.text) for __aeabi_dmul
    my_task.o(.text.turn_angle) refers to dflti.o(.text) for __aeabi_i2d
    my_task.o(.text.turn_angle) refers to dfixi.o(.text) for __aeabi_d2iz
    my_task.o(.text.turn_angle) refers to dev_car.o(.text.DEV_CAR_Set_Speed) for DEV_CAR_Set_Speed
    my_task.o(.text.turn_angle) refers to my_task.o(.bss.Aim_Angle) for Aim_Angle
    my_task.o(.text.turn_angle) refers to main.o(.bss.Angle) for Angle
    my_task.o(.text.turn_angle) refers to my_task.o(.bss.turn_angle.I_item) for [Anonymous Symbol]
    my_task.o(.text.turn_angle) refers to my_task.o(.bss.CCR) for [Anonymous Symbol]
    my_task.o(.ARM.exidx.text.turn_angle) refers to my_task.o(.text.turn_angle) for [Anonymous Symbol]
    my_task.o(.text.task1) refers to dcmp.o(i._dgeq) for __aeabi_dcmpge
    my_task.o(.text.task1) refers to led.o(.text.LED_ON) for LED_ON
    my_task.o(.text.task1) refers to dev_car.o(.text.Car_Set_Direction) for Car_Set_Direction
    my_task.o(.text.task1) refers to dcmp.o(i._dleq) for __aeabi_dcmple
    my_task.o(.text.task1) refers to daddsub.o(.text) for __aeabi_dsub
    my_task.o(.text.task1) refers to dmul.o(.text) for __aeabi_dmul
    my_task.o(.text.task1) refers to dfixi.o(.text) for __aeabi_d2iz
    my_task.o(.text.task1) refers to dev_car.o(.text.DEV_CAR_Set_Speed) for DEV_CAR_Set_Speed
    my_task.o(.text.task1) refers to my_task.o(.bss.task1_index) for task1_index
    my_task.o(.text.task1) refers to dev_grayscale.o(.data.not_on_drak_line_flag) for not_on_drak_line_flag
    my_task.o(.text.task1) refers to my_task.o(.bss.Aim_Angle) for Aim_Angle
    my_task.o(.text.task1) refers to main.o(.bss.Angle) for Angle
    my_task.o(.text.task1) refers to my_task.o(.bss.CCR) for [Anonymous Symbol]
    my_task.o(.text.task1) refers to time.o(.bss.task) for task
    my_task.o(.ARM.exidx.text.task1) refers to my_task.o(.text.task1) for [Anonymous Symbol]
    my_task.o(.text.task2) refers to my_task.o(.bss.task2.count_time) for [Anonymous Symbol]
    my_task.o(.text.task2) refers to my_task.o(.bss.task2_index) for task2_index
    my_task.o(.text.task2) refers to led.o(.text.LED_ON) for LED_ON
    my_task.o(.text.task2) refers to dev_car.o(.text.Car_Set_Direction) for Car_Set_Direction
    my_task.o(.text.task2) refers to daddsub.o(.text) for __aeabi_dadd
    my_task.o(.text.task2) refers to dfixi.o(.text) for __aeabi_d2iz
    my_task.o(.text.task2) refers to dcmp.o(i._dleq) for __aeabi_dcmple
    my_task.o(.text.task2) refers to my_task.o(.text.turn_angle) for turn_angle
    my_task.o(.text.task2) refers to my_task.o(.text.follow_line) for follow_line
    my_task.o(.text.task2) refers to dcmp.o(i._dgeq) for __aeabi_dcmpge
    my_task.o(.text.task2) refers to dmul.o(.text) for __aeabi_dmul
    my_task.o(.text.task2) refers to dev_car.o(.text.DEV_CAR_Set_Speed) for DEV_CAR_Set_Speed
    my_task.o(.text.task2) refers to dev_grayscale.o(.data.not_on_drak_line_flag) for not_on_drak_line_flag
    my_task.o(.text.task2) refers to dev_grayscale.o(.data.on_drak_line_flag) for on_drak_line_flag
    my_task.o(.text.task2) refers to my_task.o(.bss.Aim_Angle) for Aim_Angle
    my_task.o(.text.task2) refers to main.o(.bss.Angle) for Angle
    my_task.o(.text.task2) refers to my_task.o(.data.Waiting_Out_Black_Line_Time) for Waiting_Out_Black_Line_Time
    my_task.o(.text.task2) refers to my_task.o(.bss.task2.last_count_time) for [Anonymous Symbol]
    my_task.o(.text.task2) refers to time.o(.bss.task) for task
    my_task.o(.text.task2) refers to my_task.o(.bss.CCR) for [Anonymous Symbol]
    my_task.o(.ARM.exidx.text.task2) refers to my_task.o(.text.task2) for [Anonymous Symbol]
    my_task.o(.text.task3) refers to my_task.o(.bss.task3.count_time) for [Anonymous Symbol]
    my_task.o(.text.task3) refers to my_task.o(.bss.task3_index) for task3_index
    my_task.o(.text.task3) refers to daddsub.o(.text) for __aeabi_dsub
    my_task.o(.text.task3) refers to dfixi.o(.text) for __aeabi_d2iz
    my_task.o(.text.task3) refers to led.o(.text.LED_ON) for LED_ON
    my_task.o(.text.task3) refers to dev_car.o(.text.Car_Set_Direction) for Car_Set_Direction
    my_task.o(.text.task3) refers to my_task.o(.text.follow_line) for follow_line
    my_task.o(.text.task3) refers to my_task.o(.text.turn_angle) for turn_angle
    my_task.o(.text.task3) refers to dcmp.o(i._dleq) for __aeabi_dcmple
    my_task.o(.text.task3) refers to dcmp.o(i._dgeq) for __aeabi_dcmpge
    my_task.o(.text.task3) refers to dmul.o(.text) for __aeabi_dmul
    my_task.o(.text.task3) refers to dev_car.o(.text.DEV_CAR_Set_Speed) for DEV_CAR_Set_Speed
    my_task.o(.text.task3) refers to main.o(.bss.Angle) for Angle
    my_task.o(.text.task3) refers to my_task.o(.bss.task3.last_count_time) for [Anonymous Symbol]
    my_task.o(.text.task3) refers to my_task.o(.bss.Aim_Angle) for Aim_Angle
    my_task.o(.text.task3) refers to my_task.o(.bss.task3.turn_count) for [Anonymous Symbol]
    my_task.o(.text.task3) refers to dev_grayscale.o(.data.not_on_drak_line_flag) for not_on_drak_line_flag
    my_task.o(.text.task3) refers to my_task.o(.data.Waiting_Out_Black_Line_Time) for Waiting_Out_Black_Line_Time
    my_task.o(.text.task3) refers to time.o(.bss.task) for task
    my_task.o(.text.task3) refers to dev_grayscale.o(.data.on_drak_line_flag) for on_drak_line_flag
    my_task.o(.text.task3) refers to my_task.o(.bss.CCR) for [Anonymous Symbol]
    my_task.o(.ARM.exidx.text.task3) refers to my_task.o(.text.task3) for [Anonymous Symbol]
    my_task.o(.text.task4) refers to my_task.o(.bss.task4.count_time) for [Anonymous Symbol]
    my_task.o(.text.task4) refers to my_task.o(.bss.task4_index) for task4_index
    my_task.o(.text.task4) refers to my_task.o(.bss.task4.last_count_time) for [Anonymous Symbol]
    my_task.o(.text.task4) refers to my_task.o(.bss.task4.turn_count) for [Anonymous Symbol]
    my_task.o(.text.task4) refers to time.o(.bss.task) for task
    my_task.o(.text.task4) refers to daddsub.o(.text) for __aeabi_dsub
    my_task.o(.text.task4) refers to dfixi.o(.text) for __aeabi_d2iz
    my_task.o(.text.task4) refers to led.o(.text.LED_ON) for LED_ON
    my_task.o(.text.task4) refers to dev_car.o(.text.Car_Set_Direction) for Car_Set_Direction
    my_task.o(.text.task4) refers to my_task.o(.text.follow_line) for follow_line
    my_task.o(.text.task4) refers to my_task.o(.text.follow_angle_FAST) for follow_angle_FAST
    my_task.o(.text.task4) refers to my_task.o(.text.turn_angle) for turn_angle
    my_task.o(.text.task4) refers to my_task.o(.data.Waiting_Out_Black_Line_Time) for Waiting_Out_Black_Line_Time
    my_task.o(.text.task4) refers to my_task.o(.bss.Aim_Angle) for Aim_Angle
    my_task.o(.text.task4) refers to dev_grayscale.o(.data.not_on_drak_line_flag) for not_on_drak_line_flag
    my_task.o(.text.task4) refers to main.o(.bss.Angle) for Angle
    my_task.o(.text.task4) refers to dev_grayscale.o(.data.on_drak_line_flag) for on_drak_line_flag
    my_task.o(.text.task4) refers to my_task.o(.bss.Follow_Angle_Count) for Follow_Angle_Count
    my_task.o(.ARM.exidx.text.task4) refers to my_task.o(.text.task4) for [Anonymous Symbol]
    my_task.o(.text.task5) refers to my_task.o(.bss.task5.count_time) for [Anonymous Symbol]
    my_task.o(.text.task5) refers to my_task.o(.bss.task5_index) for task5_index
    my_task.o(.text.task5) refers to my_task.o(.bss.task5.last_count_time) for [Anonymous Symbol]
    my_task.o(.text.task5) refers to my_task.o(.bss.task5.turn_count) for [Anonymous Symbol]
    my_task.o(.text.task5) refers to time.o(.bss.task) for task
    my_task.o(.text.task5) refers to daddsub.o(.text) for __aeabi_dsub
    my_task.o(.text.task5) refers to dfixi.o(.text) for __aeabi_d2iz
    my_task.o(.text.task5) refers to led.o(.text.LED_ON) for LED_ON
    my_task.o(.text.task5) refers to dev_car.o(.text.Car_Set_Direction) for Car_Set_Direction
    my_task.o(.text.task5) refers to my_task.o(.text.follow_line) for follow_line
    my_task.o(.text.task5) refers to dcmp.o(i._dleq) for __aeabi_dcmple
    my_task.o(.text.task5) refers to my_task.o(.text.turn_angle) for turn_angle
    my_task.o(.text.task5) refers to my_task.o(.text.follow_angle) for follow_angle
    my_task.o(.text.task5) refers to dcmp.o(i._dgeq) for __aeabi_dcmpge
    my_task.o(.text.task5) refers to dmul.o(.text) for __aeabi_dmul
    my_task.o(.text.task5) refers to dev_car.o(.text.DEV_CAR_Set_Speed) for DEV_CAR_Set_Speed
    my_task.o(.text.task5) refers to main.o(.bss.Angle) for Angle
    my_task.o(.text.task5) refers to my_task.o(.bss.Aim_Angle) for Aim_Angle
    my_task.o(.text.task5) refers to dev_grayscale.o(.data.not_on_drak_line_flag) for not_on_drak_line_flag
    my_task.o(.text.task5) refers to my_task.o(.data.Waiting_Out_Black_Line_Time) for Waiting_Out_Black_Line_Time
    my_task.o(.text.task5) refers to dev_grayscale.o(.data.on_drak_line_flag) for on_drak_line_flag
    my_task.o(.text.task5) refers to my_task.o(.bss.CCR) for [Anonymous Symbol]
    my_task.o(.text.task5) refers to my_task.o(.bss.Follow_Angle_Count) for Follow_Angle_Count
    my_task.o(.ARM.exidx.text.task5) refers to my_task.o(.text.task5) for [Anonymous Symbol]
    my_task.o(.text.turn_angle_tuning) refers to my_task.o(.text.turn_angle) for turn_angle
    my_task.o(.text.turn_angle_tuning) refers to daddsub.o(.text) for __aeabi_dsub
    my_task.o(.text.turn_angle_tuning) refers to dfixi.o(.text) for __aeabi_d2iz
    my_task.o(.text.turn_angle_tuning) refers to led.o(.text.LED_ON) for LED_ON
    my_task.o(.text.turn_angle_tuning) refers to dev_car.o(.text.Car_Set_Direction) for Car_Set_Direction
    my_task.o(.text.turn_angle_tuning) refers to my_task.o(.bss.Aim_Angle) for Aim_Angle
    my_task.o(.text.turn_angle_tuning) refers to main.o(.bss.Angle) for Angle
    my_task.o(.text.turn_angle_tuning) refers to my_task.o(.bss.turn_angle_tuning.count) for [Anonymous Symbol]
    my_task.o(.text.turn_angle_tuning) refers to time.o(.bss.task) for task
    my_task.o(.ARM.exidx.text.turn_angle_tuning) refers to my_task.o(.text.turn_angle_tuning) for [Anonymous Symbol]
    ti_msp_dl_config.o(.text.SYSCFG_DL_init) refers to ti_msp_dl_config.o(.text.SYSCFG_DL_initPower) for SYSCFG_DL_initPower
    ti_msp_dl_config.o(.text.SYSCFG_DL_init) refers to ti_msp_dl_config.o(.text.SYSCFG_DL_GPIO_init) for SYSCFG_DL_GPIO_init
    ti_msp_dl_config.o(.text.SYSCFG_DL_init) refers to ti_msp_dl_config.o(.text.SYSCFG_DL_SYSCTL_init) for SYSCFG_DL_SYSCTL_init
    ti_msp_dl_config.o(.text.SYSCFG_DL_init) refers to ti_msp_dl_config.o(.text.SYSCFG_DL_PWM_Motor_Left_init) for SYSCFG_DL_PWM_Motor_Left_init
    ti_msp_dl_config.o(.text.SYSCFG_DL_init) refers to ti_msp_dl_config.o(.text.SYSCFG_DL_PWM_Motor_Right_init) for SYSCFG_DL_PWM_Motor_Right_init
    ti_msp_dl_config.o(.text.SYSCFG_DL_init) refers to ti_msp_dl_config.o(.text.SYSCFG_DL_TIMER_0_init) for SYSCFG_DL_TIMER_0_init
    ti_msp_dl_config.o(.text.SYSCFG_DL_init) refers to ti_msp_dl_config.o(.text.SYSCFG_DL_I2C0_init) for SYSCFG_DL_I2C0_init
    ti_msp_dl_config.o(.text.SYSCFG_DL_init) refers to ti_msp_dl_config.o(.text.SYSCFG_DL_UART2_init) for SYSCFG_DL_UART2_init
    ti_msp_dl_config.o(.text.SYSCFG_DL_init) refers to ti_msp_dl_config.o(.text.SYSCFG_DL_SYSTICK_init) for SYSCFG_DL_SYSTICK_init
    ti_msp_dl_config.o(.text.SYSCFG_DL_init) refers to ti_msp_dl_config.o(.bss.gPWM_Motor_RightBackup) for gPWM_Motor_RightBackup
    ti_msp_dl_config.o(.text.SYSCFG_DL_init) refers to ti_msp_dl_config.o(.bss.gPWM_Motor_LeftBackup) for gPWM_Motor_LeftBackup
    ti_msp_dl_config.o(.ARM.exidx.text.SYSCFG_DL_init) refers to ti_msp_dl_config.o(.text.SYSCFG_DL_init) for [Anonymous Symbol]
    ti_msp_dl_config.o(.text.SYSCFG_DL_initPower) refers to dl_common.o(.text.DL_Common_delayCycles) for DL_Common_delayCycles
    ti_msp_dl_config.o(.ARM.exidx.text.SYSCFG_DL_initPower) refers to ti_msp_dl_config.o(.text.SYSCFG_DL_initPower) for [Anonymous Symbol]
    ti_msp_dl_config.o(.ARM.exidx.text.SYSCFG_DL_GPIO_init) refers to ti_msp_dl_config.o(.text.SYSCFG_DL_GPIO_init) for [Anonymous Symbol]
    ti_msp_dl_config.o(.ARM.exidx.text.SYSCFG_DL_SYSCTL_init) refers to ti_msp_dl_config.o(.text.SYSCFG_DL_SYSCTL_init) for [Anonymous Symbol]
    ti_msp_dl_config.o(.text.SYSCFG_DL_PWM_Motor_Left_init) refers to dl_timer.o(.text.DL_Timer_setClockConfig) for DL_Timer_setClockConfig
    ti_msp_dl_config.o(.text.SYSCFG_DL_PWM_Motor_Left_init) refers to dl_timer.o(.text.DL_TimerA_initPWMMode) for DL_TimerA_initPWMMode
    ti_msp_dl_config.o(.text.SYSCFG_DL_PWM_Motor_Left_init) refers to dl_timer.o(.text.DL_Timer_setCaptureCompareValue) for DL_Timer_setCaptureCompareValue
    ti_msp_dl_config.o(.text.SYSCFG_DL_PWM_Motor_Left_init) refers to dl_timer.o(.text.DL_Timer_setCaptureCompareOutCtl) for DL_Timer_setCaptureCompareOutCtl
    ti_msp_dl_config.o(.text.SYSCFG_DL_PWM_Motor_Left_init) refers to dl_timer.o(.text.DL_Timer_setCaptCompUpdateMethod) for DL_Timer_setCaptCompUpdateMethod
    ti_msp_dl_config.o(.text.SYSCFG_DL_PWM_Motor_Left_init) refers to ti_msp_dl_config.o(.rodata.gPWM_Motor_LeftClockConfig) for [Anonymous Symbol]
    ti_msp_dl_config.o(.text.SYSCFG_DL_PWM_Motor_Left_init) refers to ti_msp_dl_config.o(.rodata.gPWM_Motor_LeftConfig) for [Anonymous Symbol]
    ti_msp_dl_config.o(.ARM.exidx.text.SYSCFG_DL_PWM_Motor_Left_init) refers to ti_msp_dl_config.o(.text.SYSCFG_DL_PWM_Motor_Left_init) for [Anonymous Symbol]
    ti_msp_dl_config.o(.text.SYSCFG_DL_PWM_Motor_Right_init) refers to dl_timer.o(.text.DL_Timer_setClockConfig) for DL_Timer_setClockConfig
    ti_msp_dl_config.o(.text.SYSCFG_DL_PWM_Motor_Right_init) refers to dl_timer.o(.text.DL_Timer_initPWMMode) for DL_Timer_initPWMMode
    ti_msp_dl_config.o(.text.SYSCFG_DL_PWM_Motor_Right_init) refers to dl_timer.o(.text.DL_Timer_setCaptureCompareValue) for DL_Timer_setCaptureCompareValue
    ti_msp_dl_config.o(.text.SYSCFG_DL_PWM_Motor_Right_init) refers to dl_timer.o(.text.DL_Timer_setCaptureCompareOutCtl) for DL_Timer_setCaptureCompareOutCtl
    ti_msp_dl_config.o(.text.SYSCFG_DL_PWM_Motor_Right_init) refers to dl_timer.o(.text.DL_Timer_setCaptCompUpdateMethod) for DL_Timer_setCaptCompUpdateMethod
    ti_msp_dl_config.o(.text.SYSCFG_DL_PWM_Motor_Right_init) refers to ti_msp_dl_config.o(.rodata.gPWM_Motor_RightClockConfig) for [Anonymous Symbol]
    ti_msp_dl_config.o(.text.SYSCFG_DL_PWM_Motor_Right_init) refers to ti_msp_dl_config.o(.rodata.gPWM_Motor_RightConfig) for [Anonymous Symbol]
    ti_msp_dl_config.o(.ARM.exidx.text.SYSCFG_DL_PWM_Motor_Right_init) refers to ti_msp_dl_config.o(.text.SYSCFG_DL_PWM_Motor_Right_init) for [Anonymous Symbol]
    ti_msp_dl_config.o(.text.SYSCFG_DL_TIMER_0_init) refers to dl_timer.o(.text.DL_Timer_setClockConfig) for DL_Timer_setClockConfig
    ti_msp_dl_config.o(.text.SYSCFG_DL_TIMER_0_init) refers to dl_timer.o(.text.DL_Timer_initTimerMode) for DL_Timer_initTimerMode
    ti_msp_dl_config.o(.text.SYSCFG_DL_TIMER_0_init) refers to ti_msp_dl_config.o(.rodata.gTIMER_0ClockConfig) for [Anonymous Symbol]
    ti_msp_dl_config.o(.text.SYSCFG_DL_TIMER_0_init) refers to ti_msp_dl_config.o(.rodata.gTIMER_0TimerConfig) for [Anonymous Symbol]
    ti_msp_dl_config.o(.ARM.exidx.text.SYSCFG_DL_TIMER_0_init) refers to ti_msp_dl_config.o(.text.SYSCFG_DL_TIMER_0_init) for [Anonymous Symbol]
    ti_msp_dl_config.o(.text.SYSCFG_DL_I2C0_init) refers to dl_i2c.o(.text.DL_I2C_setClockConfig) for DL_I2C_setClockConfig
    ti_msp_dl_config.o(.text.SYSCFG_DL_I2C0_init) refers to ti_msp_dl_config.o(.rodata.gI2C0ClockConfig) for [Anonymous Symbol]
    ti_msp_dl_config.o(.ARM.exidx.text.SYSCFG_DL_I2C0_init) refers to ti_msp_dl_config.o(.text.SYSCFG_DL_I2C0_init) for [Anonymous Symbol]
    ti_msp_dl_config.o(.text.SYSCFG_DL_UART2_init) refers to dl_uart.o(.text.DL_UART_setClockConfig) for DL_UART_setClockConfig
    ti_msp_dl_config.o(.text.SYSCFG_DL_UART2_init) refers to dl_uart.o(.text.DL_UART_init) for DL_UART_init
    ti_msp_dl_config.o(.text.SYSCFG_DL_UART2_init) refers to ti_msp_dl_config.o(.rodata.gUART2ClockConfig) for [Anonymous Symbol]
    ti_msp_dl_config.o(.text.SYSCFG_DL_UART2_init) refers to ti_msp_dl_config.o(.rodata.gUART2Config) for [Anonymous Symbol]
    ti_msp_dl_config.o(.ARM.exidx.text.SYSCFG_DL_UART2_init) refers to ti_msp_dl_config.o(.text.SYSCFG_DL_UART2_init) for [Anonymous Symbol]
    ti_msp_dl_config.o(.ARM.exidx.text.SYSCFG_DL_SYSTICK_init) refers to ti_msp_dl_config.o(.text.SYSCFG_DL_SYSTICK_init) for [Anonymous Symbol]
    ti_msp_dl_config.o(.text.SYSCFG_DL_saveConfiguration) refers to dl_timer.o(.text.DL_TimerA_saveConfiguration) for DL_TimerA_saveConfiguration
    ti_msp_dl_config.o(.text.SYSCFG_DL_saveConfiguration) refers to dl_timer.o(.text.DL_Timer_saveConfiguration) for DL_Timer_saveConfiguration
    ti_msp_dl_config.o(.text.SYSCFG_DL_saveConfiguration) refers to ti_msp_dl_config.o(.bss.gPWM_Motor_LeftBackup) for gPWM_Motor_LeftBackup
    ti_msp_dl_config.o(.text.SYSCFG_DL_saveConfiguration) refers to ti_msp_dl_config.o(.bss.gPWM_Motor_RightBackup) for gPWM_Motor_RightBackup
    ti_msp_dl_config.o(.ARM.exidx.text.SYSCFG_DL_saveConfiguration) refers to ti_msp_dl_config.o(.text.SYSCFG_DL_saveConfiguration) for [Anonymous Symbol]
    ti_msp_dl_config.o(.text.SYSCFG_DL_restoreConfiguration) refers to dl_timer.o(.text.DL_TimerA_restoreConfiguration) for DL_TimerA_restoreConfiguration
    ti_msp_dl_config.o(.text.SYSCFG_DL_restoreConfiguration) refers to dl_timer.o(.text.DL_Timer_restoreConfiguration) for DL_Timer_restoreConfiguration
    ti_msp_dl_config.o(.text.SYSCFG_DL_restoreConfiguration) refers to ti_msp_dl_config.o(.bss.gPWM_Motor_LeftBackup) for gPWM_Motor_LeftBackup
    ti_msp_dl_config.o(.text.SYSCFG_DL_restoreConfiguration) refers to ti_msp_dl_config.o(.bss.gPWM_Motor_RightBackup) for gPWM_Motor_RightBackup
    ti_msp_dl_config.o(.ARM.exidx.text.SYSCFG_DL_restoreConfiguration) refers to ti_msp_dl_config.o(.text.SYSCFG_DL_restoreConfiguration) for [Anonymous Symbol]
    delay.o(.text.delay_ms) refers to delay.o(.bss.delay_times) for delay_times
    delay.o(.ARM.exidx.text.delay_ms) refers to delay.o(.text.delay_ms) for [Anonymous Symbol]
    delay.o(.text.SysTick_Handler) refers to delay.o(.bss.the_std_time) for the_std_time
    delay.o(.text.SysTick_Handler) refers to delay.o(.bss.delay_times) for delay_times
    delay.o(.ARM.exidx.text.SysTick_Handler) refers to delay.o(.text.SysTick_Handler) for [Anonymous Symbol]
    delay.o(.data.p_the_std_time) refers to delay.o(.bss.the_std_time) for the_std_time
    exti.o(.ARM.exidx.text.EXTI_Init) refers to exti.o(.text.EXTI_Init) for [Anonymous Symbol]
    exti.o(.text.bsp_PutKey) refers to exti.o(.bss.s_tKey) for s_tKey
    exti.o(.ARM.exidx.text.bsp_PutKey) refers to exti.o(.text.bsp_PutKey) for [Anonymous Symbol]
    exti.o(.text.bsp_GetKey) refers to exti.o(.bss.s_tKey) for s_tKey
    exti.o(.ARM.exidx.text.bsp_GetKey) refers to exti.o(.text.bsp_GetKey) for [Anonymous Symbol]
    exti.o(.text.bsp_GetKey2) refers to exti.o(.bss.s_tKey) for s_tKey
    exti.o(.ARM.exidx.text.bsp_GetKey2) refers to exti.o(.text.bsp_GetKey2) for [Anonymous Symbol]
    exti.o(.text.bsp_GetKeyState) refers to exti.o(.rodata.s_tBtn) for s_tBtn
    exti.o(.ARM.exidx.text.bsp_GetKeyState) refers to exti.o(.text.bsp_GetKeyState) for [Anonymous Symbol]
    exti.o(.text.bsp_ClearKey) refers to exti.o(.bss.s_tKey) for s_tKey
    exti.o(.ARM.exidx.text.bsp_ClearKey) refers to exti.o(.text.bsp_ClearKey) for [Anonymous Symbol]
    exti.o(.text.GROUP1_IRQHandler) refers to exti.o(.data.Key_0) for Key_0
    exti.o(.text.GROUP1_IRQHandler) refers to delay.o(.bss.the_std_time) for the_std_time
    exti.o(.text.GROUP1_IRQHandler) refers to exti.o(.bss.s_tKey) for s_tKey
    exti.o(.text.GROUP1_IRQHandler) refers to exti.o(.data.Key_1) for Key_1
    exti.o(.text.GROUP1_IRQHandler) refers to exti.o(.data.Key_2) for Key_2
    exti.o(.ARM.exidx.text.GROUP1_IRQHandler) refers to exti.o(.text.GROUP1_IRQHandler) for [Anonymous Symbol]
    exti.o(.rodata.s_tBtn) refers to exti.o(.data.Key_0) for Key_0
    exti.o(.rodata.s_tBtn) refers to exti.o(.data.Key_1) for Key_1
    exti.o(.rodata.s_tBtn) refers to exti.o(.data.Key_2) for Key_2
    led.o(.text.LED_ON) refers to led.o(.bss.led_state) for led_state
    led.o(.ARM.exidx.text.LED_ON) refers to led.o(.text.LED_ON) for [Anonymous Symbol]
    led.o(.ARM.exidx.text.LED_OFF) refers to led.o(.text.LED_OFF) for [Anonymous Symbol]
    oled.o(.text.OLED_I2C_Init) refers to dev_i2c.o(.text.I2C__init__) for I2C__init__
    oled.o(.text.OLED_I2C_Init) refers to dev_i2c.o(.data.gI2C0_Device) for gI2C0_Device
    oled.o(.ARM.exidx.text.OLED_I2C_Init) refers to oled.o(.text.OLED_I2C_Init) for [Anonymous Symbol]
    oled.o(.text.I2C_WriteByte) refers to dev_i2c.o(.text.I2C_WriteArray_With_Blocking) for I2C_WriteArray_With_Blocking
    oled.o(.text.I2C_WriteByte) refers to dev_i2c.o(.data.gI2C0_Device) for gI2C0_Device
    oled.o(.ARM.exidx.text.I2C_WriteByte) refers to oled.o(.text.I2C_WriteByte) for [Anonymous Symbol]
    oled.o(.text.WriteCmd) refers to dev_i2c.o(.text.I2C_WriteArray_With_Blocking) for I2C_WriteArray_With_Blocking
    oled.o(.text.WriteCmd) refers to dev_i2c.o(.data.gI2C0_Device) for gI2C0_Device
    oled.o(.ARM.exidx.text.WriteCmd) refers to oled.o(.text.WriteCmd) for [Anonymous Symbol]
    oled.o(.text.WriteData) refers to dev_i2c.o(.text.I2C_WriteArray_With_Blocking) for I2C_WriteArray_With_Blocking
    oled.o(.text.WriteData) refers to dev_i2c.o(.data.gI2C0_Device) for gI2C0_Device
    oled.o(.ARM.exidx.text.WriteData) refers to oled.o(.text.WriteData) for [Anonymous Symbol]
    oled.o(.text.OLED_Init) refers to dev_i2c.o(.text.I2C__init__) for I2C__init__
    oled.o(.text.OLED_Init) refers to delay.o(.text.delay_ms) for delay_ms
    oled.o(.text.OLED_Init) refers to dev_i2c.o(.text.I2C_WriteArray_With_Blocking) for I2C_WriteArray_With_Blocking
    oled.o(.text.OLED_Init) refers to dev_i2c.o(.data.gI2C0_Device) for gI2C0_Device
    oled.o(.ARM.exidx.text.OLED_Init) refers to oled.o(.text.OLED_Init) for [Anonymous Symbol]
    oled.o(.text.OLED_SetCursor) refers to dev_i2c.o(.text.I2C_WriteArray_With_Blocking) for I2C_WriteArray_With_Blocking
    oled.o(.text.OLED_SetCursor) refers to dev_i2c.o(.data.gI2C0_Device) for gI2C0_Device
    oled.o(.ARM.exidx.text.OLED_SetCursor) refers to oled.o(.text.OLED_SetCursor) for [Anonymous Symbol]
    oled.o(.text.OLED_FILL) refers to dev_i2c.o(.text.I2C_WriteArray_With_Blocking) for I2C_WriteArray_With_Blocking
    oled.o(.text.OLED_FILL) refers to dev_i2c.o(.text.I2C_WriteArray2Register_With_Blocking) for I2C_WriteArray2Register_With_Blocking
    oled.o(.text.OLED_FILL) refers to dev_i2c.o(.data.gI2C0_Device) for gI2C0_Device
    oled.o(.ARM.exidx.text.OLED_FILL) refers to oled.o(.text.OLED_FILL) for [Anonymous Symbol]
    oled.o(.text.OLED_CLS) refers to rt_memclr.o(.text) for __aeabi_memclr4
    oled.o(.text.OLED_CLS) refers to dev_i2c.o(.text.I2C_WriteArray_With_Blocking) for I2C_WriteArray_With_Blocking
    oled.o(.text.OLED_CLS) refers to dev_i2c.o(.text.I2C_WriteArray2Register_With_Blocking) for I2C_WriteArray2Register_With_Blocking
    oled.o(.text.OLED_CLS) refers to dev_i2c.o(.data.gI2C0_Device) for gI2C0_Device
    oled.o(.ARM.exidx.text.OLED_CLS) refers to oled.o(.text.OLED_CLS) for [Anonymous Symbol]
    oled.o(.text.OLED_ON) refers to dev_i2c.o(.text.I2C_WriteArray_With_Blocking) for I2C_WriteArray_With_Blocking
    oled.o(.text.OLED_ON) refers to dev_i2c.o(.data.gI2C0_Device) for gI2C0_Device
    oled.o(.ARM.exidx.text.OLED_ON) refers to oled.o(.text.OLED_ON) for [Anonymous Symbol]
    oled.o(.text.OLED_OFF) refers to dev_i2c.o(.text.I2C_WriteArray_With_Blocking) for I2C_WriteArray_With_Blocking
    oled.o(.text.OLED_OFF) refers to dev_i2c.o(.data.gI2C0_Device) for gI2C0_Device
    oled.o(.ARM.exidx.text.OLED_OFF) refers to oled.o(.text.OLED_OFF) for [Anonymous Symbol]
    oled.o(.text.OLED_ShowChar) refers to dev_i2c.o(.text.I2C_WriteArray_With_Blocking) for I2C_WriteArray_With_Blocking
    oled.o(.text.OLED_ShowChar) refers to dev_i2c.o(.data.gI2C0_Device) for gI2C0_Device
    oled.o(.text.OLED_ShowChar) refers to oled_font.o(.rodata.OLED_F8x16) for OLED_F8x16
    oled.o(.ARM.exidx.text.OLED_ShowChar) refers to oled.o(.text.OLED_ShowChar) for [Anonymous Symbol]
    oled.o(.text.OLED_ShowString) refers to oled.o(.text.OLED_ShowChar) for OLED_ShowChar
    oled.o(.ARM.exidx.text.OLED_ShowString) refers to oled.o(.text.OLED_ShowString) for [Anonymous Symbol]
    servo.o(.text.Servo_SetAngle_0) refers to fdiv.o(.text) for __aeabi_fdiv
    servo.o(.text.Servo_SetAngle_0) refers to fmul.o(x$fpl$fmul) for __aeabi_fmul
    servo.o(.text.Servo_SetAngle_0) refers to faddsub.o(x$fpl$fadd) for __aeabi_fadd
    servo.o(.text.Servo_SetAngle_0) refers to ffixui.o(.text) for __aeabi_f2uiz
    servo.o(.text.Servo_SetAngle_0) refers to dl_timer.o(.text.DL_Timer_setCaptureCompareValue) for DL_Timer_setCaptureCompareValue
    servo.o(.ARM.exidx.text.Servo_SetAngle_0) refers to servo.o(.text.Servo_SetAngle_0) for [Anonymous Symbol]
    servo.o(.text.Servo_SetAngle_1) refers to fdiv.o(.text) for __aeabi_fdiv
    servo.o(.text.Servo_SetAngle_1) refers to fmul.o(x$fpl$fmul) for __aeabi_fmul
    servo.o(.text.Servo_SetAngle_1) refers to faddsub.o(x$fpl$fadd) for __aeabi_fadd
    servo.o(.text.Servo_SetAngle_1) refers to ffixui.o(.text) for __aeabi_f2uiz
    servo.o(.text.Servo_SetAngle_1) refers to dl_timer.o(.text.DL_Timer_setCaptureCompareValue) for DL_Timer_setCaptureCompareValue
    servo.o(.ARM.exidx.text.Servo_SetAngle_1) refers to servo.o(.text.Servo_SetAngle_1) for [Anonymous Symbol]
    servo.o(.text.Servo_SetAngle_2) refers to fdiv.o(.text) for __aeabi_fdiv
    servo.o(.text.Servo_SetAngle_2) refers to fmul.o(x$fpl$fmul) for __aeabi_fmul
    servo.o(.text.Servo_SetAngle_2) refers to faddsub.o(x$fpl$fadd) for __aeabi_fadd
    servo.o(.text.Servo_SetAngle_2) refers to ffixui.o(.text) for __aeabi_f2uiz
    servo.o(.text.Servo_SetAngle_2) refers to dl_timer.o(.text.DL_Timer_setCaptureCompareValue) for DL_Timer_setCaptureCompareValue
    servo.o(.ARM.exidx.text.Servo_SetAngle_2) refers to servo.o(.text.Servo_SetAngle_2) for [Anonymous Symbol]
    time.o(.text.TIMG0_IRQHandler) refers to dev_grayscale.o(.text.read_grayscale) for read_grayscale
    time.o(.text.TIMG0_IRQHandler) refers to time.o(.bss.task) for task
    time.o(.text.TIMG0_IRQHandler) refers to dev_grayscale.o(.bss.gray_value) for gray_value
    time.o(.ARM.exidx.text.TIMG0_IRQHandler) refers to time.o(.text.TIMG0_IRQHandler) for [Anonymous Symbol]
    uart.o(.text.UART_NVIC_Init) refers to buffer.o(.text.Iinitial_BUFF) for Iinitial_BUFF
    uart.o(.text.UART_NVIC_Init) refers to uart.o(.bss.U2_buffer) for U2_buffer
    uart.o(.ARM.exidx.text.UART_NVIC_Init) refers to uart.o(.text.UART_NVIC_Init) for [Anonymous Symbol]
    uart.o(.text.App_Printf) refers to vsnprintf.o(.text) for vsnprintf
    uart.o(.text.App_Printf) refers to strlen.o(.text) for strlen
    uart.o(.text.App_Printf) refers to dl_uart.o(.text.DL_UART_transmitDataBlocking) for DL_UART_transmitDataBlocking
    uart.o(.text.App_Printf) refers to uart.o(.bss.App_Printf.App_Printf_Flag) for [Anonymous Symbol]
    uart.o(.text.App_Printf) refers to uart.o(.bss.App_Printf.len) for [Anonymous Symbol]
    uart.o(.ARM.exidx.text.App_Printf) refers to uart.o(.text.App_Printf) for [Anonymous Symbol]
    uart.o(.text.Usart_SendArray) refers to dl_uart.o(.text.DL_UART_transmitDataBlocking) for DL_UART_transmitDataBlocking
    uart.o(.ARM.exidx.text.Usart_SendArray) refers to uart.o(.text.Usart_SendArray) for [Anonymous Symbol]
    uart.o(.text.UART2_IRQHandler) refers to buffer.o(.text.Write_BUFF) for Write_BUFF
    uart.o(.text.UART2_IRQHandler) refers to uart.o(.bss.Data_UART_2) for Data_UART_2
    uart.o(.text.UART2_IRQHandler) refers to uart.o(.bss.U2_buffer) for U2_buffer
    uart.o(.ARM.exidx.text.UART2_IRQHandler) refers to uart.o(.text.UART2_IRQHandler) for [Anonymous Symbol]
    uart.o(.text.Usart_SendByte) refers to dl_uart.o(.text.DL_UART_transmitDataBlocking) for DL_UART_transmitDataBlocking
    uart.o(.ARM.exidx.text.Usart_SendByte) refers to uart.o(.text.Usart_SendByte) for [Anonymous Symbol]
    oled_buffer.o(.text.ClearScreenBuffer) refers to aeabi_memset4.o(.text) for __aeabi_memset4
    oled_buffer.o(.text.ClearScreenBuffer) refers to oled_buffer.o(.bss.ScreenBuffer) for ScreenBuffer
    oled_buffer.o(.ARM.exidx.text.ClearScreenBuffer) refers to oled_buffer.o(.text.ClearScreenBuffer) for [Anonymous Symbol]
    oled_buffer.o(.text.ReadByteBuffer) refers to oled_buffer.o(.bss.ScreenBuffer) for ScreenBuffer
    oled_buffer.o(.ARM.exidx.text.ReadByteBuffer) refers to oled_buffer.o(.text.ReadByteBuffer) for [Anonymous Symbol]
    oled_buffer.o(.text.WriteByteBuffer) refers to oled_buffer.o(.bss.ScreenBuffer) for ScreenBuffer
    oled_buffer.o(.ARM.exidx.text.WriteByteBuffer) refers to oled_buffer.o(.text.WriteByteBuffer) for [Anonymous Symbol]
    oled_buffer.o(.text.WriteMultByteBuffer) refers to rt_memcpy.o(.text) for __aeabi_memcpy
    oled_buffer.o(.text.WriteMultByteBuffer) refers to oled_buffer.o(.bss.ScreenBuffer) for ScreenBuffer
    oled_buffer.o(.ARM.exidx.text.WriteMultByteBuffer) refers to oled_buffer.o(.text.WriteMultByteBuffer) for [Anonymous Symbol]
    oled_buffer.o(.text.UpdateScreenDisplay) refers to oled.o(.text.OLED_FILL) for OLED_FILL
    oled_buffer.o(.text.UpdateScreenDisplay) refers to oled_buffer.o(.bss.ScreenBuffer) for ScreenBuffer
    oled_buffer.o(.ARM.exidx.text.UpdateScreenDisplay) refers to oled_buffer.o(.text.UpdateScreenDisplay) for [Anonymous Symbol]
    oled_draw.o(.text.DrawChar) refers to oled_buffer.o(.text.WriteByteBuffer) for WriteByteBuffer
    oled_draw.o(.text.DrawChar) refers to oled_draw.o(.rodata.F6x8) for F6x8
    oled_draw.o(.ARM.exidx.text.DrawChar) refers to oled_draw.o(.text.DrawChar) for [Anonymous Symbol]
    oled_draw.o(.text.DrawString) refers to oled_draw.o(.text.DrawChar) for DrawChar
    oled_draw.o(.ARM.exidx.text.DrawString) refers to oled_draw.o(.text.DrawString) for [Anonymous Symbol]
    oled_draw.o(.ARM.exidx.text.int_Pow) refers to oled_draw.o(.text.int_Pow) for [Anonymous Symbol]
    oled_draw.o(.text.DrawNum) refers to oled_draw.o(.text.DrawChar) for DrawChar
    oled_draw.o(.text.DrawNum) refers to aeabi_sdivfast.o(.text_divfast) for __aeabi_uidiv
    oled_draw.o(.text.DrawNum) refers to aeabi_sdivfast.o(.text) for __aeabi_uidivmod
    oled_draw.o(.ARM.exidx.text.DrawNum) refers to oled_draw.o(.text.DrawNum) for [Anonymous Symbol]
    oled_draw.o(.text.DrawPicture) refers to oled_buffer.o(.text.WriteByteBuffer) for WriteByteBuffer
    oled_draw.o(.ARM.exidx.text.DrawPicture) refers to oled_draw.o(.text.DrawPicture) for [Anonymous Symbol]
    dev_i2c.o(.text.I2C__init__) refers to buffer.o(.text.Iinitial_BUFF) for Iinitial_BUFF
    dev_i2c.o(.ARM.exidx.text.I2C__init__) refers to dev_i2c.o(.text.I2C__init__) for [Anonymous Symbol]
    dev_i2c.o(.text.I2C_WriteArray_With_Blocking) refers to dl_i2c.o(.text.DL_I2C_fillControllerTXFIFO) for DL_I2C_fillControllerTXFIFO
    dev_i2c.o(.text.I2C_WriteArray_With_Blocking) refers to dl_i2c.o(.text.DL_I2C_flushControllerTXFIFO) for DL_I2C_flushControllerTXFIFO
    dev_i2c.o(.ARM.exidx.text.I2C_WriteArray_With_Blocking) refers to dev_i2c.o(.text.I2C_WriteArray_With_Blocking) for [Anonymous Symbol]
    dev_i2c.o(.text.I2C_WriteArray2Register_With_Blocking) refers to dl_i2c.o(.text.DL_I2C_fillControllerTXFIFO) for DL_I2C_fillControllerTXFIFO
    dev_i2c.o(.text.I2C_WriteArray2Register_With_Blocking) refers to dl_i2c.o(.text.DL_I2C_flushControllerTXFIFO) for DL_I2C_flushControllerTXFIFO
    dev_i2c.o(.ARM.exidx.text.I2C_WriteArray2Register_With_Blocking) refers to dev_i2c.o(.text.I2C_WriteArray2Register_With_Blocking) for [Anonymous Symbol]
    dev_i2c.o(.text.I2C0_IRQHandler) refers to dev_i2c.o(.data.gI2C0_Device) for gI2C0_Device
    dev_i2c.o(.ARM.exidx.text.I2C0_IRQHandler) refers to dev_i2c.o(.text.I2C0_IRQHandler) for [Anonymous Symbol]
    dev_i2c.o(.data.gI2C0_Device) refers to dev_i2c.o(.bss.I2C0_buffer) for I2C0_buffer
    buffer.o(.text.Iinitial_BUFF) refers to h1_alloc.o(.text) for malloc
    buffer.o(.ARM.exidx.text.Iinitial_BUFF) refers to buffer.o(.text.Iinitial_BUFF) for [Anonymous Symbol]
    buffer.o(.ARM.exidx.text.Write_BUFF) refers to buffer.o(.text.Write_BUFF) for [Anonymous Symbol]
    buffer.o(.ARM.exidx.text.Write_BUFF_P) refers to buffer.o(.text.Write_BUFF_P) for [Anonymous Symbol]
    buffer.o(.ARM.exidx.text.Read_BUFF) refers to buffer.o(.text.Read_BUFF) for [Anonymous Symbol]
    buffer.o(.ARM.exidx.text.BUFF_find) refers to buffer.o(.text.BUFF_find) for [Anonymous Symbol]
    buffer.o(.ARM.exidx.text.BUFF_is_empty) refers to buffer.o(.text.BUFF_is_empty) for [Anonymous Symbol]
    buffer.o(.ARM.exidx.text.BUFF_pop_by_Protocol) refers to buffer.o(.text.BUFF_pop_by_Protocol) for [Anonymous Symbol]
    buffer.o(.ARM.exidx.text.BUFF_pop_with_check_by_Protocol) refers to buffer.o(.text.BUFF_pop_with_check_by_Protocol) for [Anonymous Symbol]
    dev_grayscale.o(.text.read_grayscale) refers to dev_grayscale.o(.data.not_on_drak_line_flag) for not_on_drak_line_flag
    dev_grayscale.o(.text.read_grayscale) refers to dev_grayscale.o(.data.on_drak_line_flag) for on_drak_line_flag
    dev_grayscale.o(.text.read_grayscale) refers to dev_grayscale.o(.bss.in_middle_flag) for in_middle_flag
    dev_grayscale.o(.ARM.exidx.text.read_grayscale) refers to dev_grayscale.o(.text.read_grayscale) for [Anonymous Symbol]
    dev_grayscale.o(.text.read_special_state) refers to dev_grayscale.o(.rodata.Grayscale_Pin) for Grayscale_Pin
    dev_grayscale.o(.ARM.exidx.text.read_special_state) refers to dev_grayscale.o(.text.read_special_state) for [Anonymous Symbol]
    pid.o(.ARM.exidx.text.PID_Initialize) refers to pid.o(.text.PID_Initialize) for [Anonymous Symbol]
    pid.o(.text.PID_Realize) refers to fflti.o(.text) for __aeabi_i2f
    pid.o(.text.PID_Realize) refers to faddsub.o(x$fpl$fsub) for __aeabi_fsub
    pid.o(.text.PID_Realize) refers to faddsub.o(x$fpl$fadd) for __aeabi_fadd
    pid.o(.text.PID_Realize) refers to fcmp.o(i._fgr) for __aeabi_fcmpgt
    pid.o(.text.PID_Realize) refers to fcmp.o(i._fls) for __aeabi_fcmplt
    pid.o(.text.PID_Realize) refers to fmul.o(x$fpl$fmul) for __aeabi_fmul
    pid.o(.text.PID_Realize) refers to ffixi.o(.text) for __aeabi_f2iz
    pid.o(.ARM.exidx.text.PID_Realize) refers to pid.o(.text.PID_Realize) for [Anonymous Symbol]
    pid.o(.text.PID_Realize_angle) refers to fflti.o(.text) for __aeabi_i2f
    pid.o(.text.PID_Realize_angle) refers to faddsub.o(x$fpl$fsub) for __aeabi_fsub
    pid.o(.text.PID_Realize_angle) refers to fcmp.o(i._fleq) for __aeabi_fcmple
    pid.o(.text.PID_Realize_angle) refers to fcmp.o(i._fgeq) for __aeabi_fcmpge
    pid.o(.text.PID_Realize_angle) refers to faddsub.o(x$fpl$fadd) for __aeabi_fadd
    pid.o(.text.PID_Realize_angle) refers to fcmp.o(i._fgr) for __aeabi_fcmpgt
    pid.o(.text.PID_Realize_angle) refers to fcmp.o(i._fls) for __aeabi_fcmplt
    pid.o(.text.PID_Realize_angle) refers to fmul.o(x$fpl$fmul) for __aeabi_fmul
    pid.o(.text.PID_Realize_angle) refers to ffixi.o(.text) for __aeabi_f2iz
    pid.o(.ARM.exidx.text.PID_Realize_angle) refers to pid.o(.text.PID_Realize_angle) for [Anonymous Symbol]
    pid.o(.text.PID_Increase) refers to fflti.o(.text) for __aeabi_i2f
    pid.o(.text.PID_Increase) refers to faddsub.o(x$fpl$fsub) for __aeabi_fsub
    pid.o(.text.PID_Increase) refers to fmul.o(x$fpl$fmul) for __aeabi_fmul
    pid.o(.text.PID_Increase) refers to faddsub.o(x$fpl$fadd) for __aeabi_fadd
    pid.o(.text.PID_Increase) refers to ffixi.o(.text) for __aeabi_f2iz
    pid.o(.ARM.exidx.text.PID_Increase) refers to pid.o(.text.PID_Increase) for [Anonymous Symbol]
    pid.o(.ARM.exidx.text.Limited_Out) refers to pid.o(.text.Limited_Out) for [Anonymous Symbol]
    pid.o(.ARM.exidx.text.Series_PID) refers to pid.o(.text.Series_PID) for [Anonymous Symbol]
    stepper.o(.text.Stepper_Send_Instruction) refers to uart.o(.text.Usart_SendArray) for Usart_SendArray
    stepper.o(.ARM.exidx.text.Stepper_Send_Instruction) refers to stepper.o(.text.Stepper_Send_Instruction) for [Anonymous Symbol]
    stepper.o(.ARM.exidx.text.Stepper_Achieve_Distance) refers to stepper.o(.text.Stepper_Achieve_Distance) for [Anonymous Symbol]
    stepper.o(.ARM.exidx.text.Stepper_Speed_Control) refers to stepper.o(.text.Stepper_Speed_Control) for [Anonymous Symbol]
    stepper.o(.text.Stepper_synchronization) refers to uart.o(.text.Usart_SendArray) for Usart_SendArray
    stepper.o(.ARM.exidx.text.Stepper_synchronization) refers to stepper.o(.text.Stepper_synchronization) for [Anonymous Symbol]
    stepper.o(.text.Stepper_Read_Current_Position) refers to delay.o(.text.delay_ms) for delay_ms
    stepper.o(.text.Stepper_Read_Current_Position) refers to buffer.o(.text.BUFF_pop_by_Protocol) for BUFF_pop_by_Protocol
    stepper.o(.ARM.exidx.text.Stepper_Read_Current_Position) refers to stepper.o(.text.Stepper_Read_Current_Position) for [Anonymous Symbol]
    stepper.o(.ARM.exidx.text.Stepper_stop) refers to stepper.o(.text.Stepper_stop) for [Anonymous Symbol]
    stepper.o(.text.Stepper_get_current_position_from_buff) refers to buffer.o(.text.BUFF_pop_by_Protocol) for BUFF_pop_by_Protocol
    stepper.o(.ARM.exidx.text.Stepper_get_current_position_from_buff) refers to stepper.o(.text.Stepper_get_current_position_from_buff) for [Anonymous Symbol]
    stepper.o(.text.Stepper_unInit) refers to h1_free.o(.text) for free
    stepper.o(.ARM.exidx.text.Stepper_unInit) refers to stepper.o(.text.Stepper_unInit) for [Anonymous Symbol]
    stepper.o(.text.Stepper_Init) refers to h1_alloc.o(.text) for malloc
    stepper.o(.text.Stepper_Init) refers to stepper.o(.text.Stepper_Achieve_Distance) for Stepper_Achieve_Distance
    stepper.o(.text.Stepper_Init) refers to stepper.o(.text.Stepper_Read_Current_Position) for Stepper_Read_Current_Position
    stepper.o(.text.Stepper_Init) refers to stepper.o(.text.Stepper_unInit) for Stepper_unInit
    stepper.o(.text.Stepper_Init) refers to stepper.o(.text.Stepper_stop) for Stepper_stop
    stepper.o(.text.Stepper_Init) refers to stepper.o(.text.Stepper_get_current_position_from_buff) for Stepper_get_current_position_from_buff
    stepper.o(.text.Stepper_Init) refers to stepper.o(.text.Stepper_Send_Instruction) for Stepper_Send_Instruction
    stepper.o(.text.Stepper_Init) refers to stepper.o(.text.Stepper_Speed_Control) for Stepper_Speed_Control
    stepper.o(.ARM.exidx.text.Stepper_Init) refers to stepper.o(.text.Stepper_Init) for [Anonymous Symbol]
    dev_car.o(.ARM.exidx.text.DEV_CAR_Init) refers to dev_car.o(.text.DEV_CAR_Init) for [Anonymous Symbol]
    dev_car.o(.ARM.exidx.text.Car_Set_Direction) refers to dev_car.o(.text.Car_Set_Direction) for [Anonymous Symbol]
    dev_car.o(.text.DEV_CAR_Set_Speed) refers to dl_timer.o(.text.DL_Timer_setCaptureCompareValue) for DL_Timer_setCaptureCompareValue
    dev_car.o(.text.DEV_CAR_Set_Speed) refers to dev_car.o(.bss.DEV_CAR_Set_Speed.CCR_.0) for [Anonymous Symbol]
    dev_car.o(.text.DEV_CAR_Set_Speed) refers to dev_car.o(.bss.DEV_CAR_Set_Speed.CCR_.1) for [Anonymous Symbol]
    dev_car.o(.text.DEV_CAR_Set_Speed) refers to dev_car.o(.bss.DEV_CAR_Set_Speed.CCR_.2) for [Anonymous Symbol]
    dev_car.o(.text.DEV_CAR_Set_Speed) refers to dev_car.o(.bss.DEV_CAR_Set_Speed.CCR_.3) for [Anonymous Symbol]
    dev_car.o(.ARM.exidx.text.DEV_CAR_Set_Speed) refers to dev_car.o(.text.DEV_CAR_Set_Speed) for [Anonymous Symbol]
    ui_.o(.text) refers (Special) to _printf_percent.o(.ARM.Collect$$_printf_percent$$00000000) for _printf_percent
    ui_.o(.text) refers (Special) to _printf_d.o(.ARM.Collect$$_printf_percent$$00000009) for _printf_d
    ui_.o(.text) refers (Special) to _printf_dec.o(.text) for _printf_int_dec
    ui_.o(.text.UI_back) refers (Special) to _printf_percent.o(.ARM.Collect$$_printf_percent$$00000000) for _printf_percent
    ui_.o(.text.UI_back) refers (Special) to _printf_d.o(.ARM.Collect$$_printf_percent$$00000009) for _printf_d
    ui_.o(.text.UI_back) refers (Special) to _printf_dec.o(.text) for _printf_int_dec
    ui_.o(.text.UI_back) refers to ui_.o(.text.UI_updata) for UI_updata
    ui_.o(.text.UI_back) refers to ui_.o(.bss.current_page) for current_page
    ui_.o(.text.UI_back) refers to ui_.o(.bss.current_item_index) for current_item_index
    ui_.o(.text.UI_back) refers to ui_.o(.bss.current_item) for current_item
    ui_.o(.ARM.exidx.text.UI_back) refers (Special) to _printf_percent.o(.ARM.Collect$$_printf_percent$$00000000) for _printf_percent
    ui_.o(.ARM.exidx.text.UI_back) refers (Special) to _printf_d.o(.ARM.Collect$$_printf_percent$$00000009) for _printf_d
    ui_.o(.ARM.exidx.text.UI_back) refers (Special) to _printf_dec.o(.text) for _printf_int_dec
    ui_.o(.ARM.exidx.text.UI_back) refers to ui_.o(.text.UI_back) for [Anonymous Symbol]
    ui_.o(.text.UI_updata) refers (Special) to _printf_percent.o(.ARM.Collect$$_printf_percent$$00000000) for _printf_percent
    ui_.o(.text.UI_updata) refers (Special) to _printf_d.o(.ARM.Collect$$_printf_percent$$00000009) for _printf_d
    ui_.o(.text.UI_updata) refers (Special) to _printf_dec.o(.text) for _printf_int_dec
    ui_.o(.text.UI_updata) refers to oled_buffer.o(.text.ClearScreenBuffer) for ClearScreenBuffer
    ui_.o(.text.UI_updata) refers to oled_draw.o(.text.DrawChar) for DrawChar
    ui_.o(.text.UI_updata) refers to oled_draw.o(.text.DrawString) for DrawString
    ui_.o(.text.UI_updata) refers to ui_.o(.bss.current_item_index) for current_item_index
    ui_.o(.text.UI_updata) refers to ui_.o(.bss.current_page) for current_page
    ui_.o(.ARM.exidx.text.UI_updata) refers (Special) to _printf_percent.o(.ARM.Collect$$_printf_percent$$00000000) for _printf_percent
    ui_.o(.ARM.exidx.text.UI_updata) refers (Special) to _printf_d.o(.ARM.Collect$$_printf_percent$$00000009) for _printf_d
    ui_.o(.ARM.exidx.text.UI_updata) refers (Special) to _printf_dec.o(.text) for _printf_int_dec
    ui_.o(.ARM.exidx.text.UI_updata) refers to ui_.o(.text.UI_updata) for [Anonymous Symbol]
    ui_.o(.text.UI_next) refers (Special) to _printf_percent.o(.ARM.Collect$$_printf_percent$$00000000) for _printf_percent
    ui_.o(.text.UI_next) refers (Special) to _printf_d.o(.ARM.Collect$$_printf_percent$$00000009) for _printf_d
    ui_.o(.text.UI_next) refers (Special) to _printf_dec.o(.text) for _printf_int_dec
    ui_.o(.text.UI_next) refers to oled_draw.o(.text.DrawChar) for DrawChar
    ui_.o(.text.UI_next) refers to ui_.o(.bss.current_item) for current_item
    ui_.o(.text.UI_next) refers to ui_.o(.bss.current_item_index) for current_item_index
    ui_.o(.ARM.exidx.text.UI_next) refers (Special) to _printf_percent.o(.ARM.Collect$$_printf_percent$$00000000) for _printf_percent
    ui_.o(.ARM.exidx.text.UI_next) refers (Special) to _printf_d.o(.ARM.Collect$$_printf_percent$$00000009) for _printf_d
    ui_.o(.ARM.exidx.text.UI_next) refers (Special) to _printf_dec.o(.text) for _printf_int_dec
    ui_.o(.ARM.exidx.text.UI_next) refers to ui_.o(.text.UI_next) for [Anonymous Symbol]
    ui_.o(.text.UI_prev) refers (Special) to _printf_percent.o(.ARM.Collect$$_printf_percent$$00000000) for _printf_percent
    ui_.o(.text.UI_prev) refers (Special) to _printf_d.o(.ARM.Collect$$_printf_percent$$00000009) for _printf_d
    ui_.o(.text.UI_prev) refers (Special) to _printf_dec.o(.text) for _printf_int_dec
    ui_.o(.text.UI_prev) refers to oled_draw.o(.text.DrawChar) for DrawChar
    ui_.o(.text.UI_prev) refers to ui_.o(.bss.current_item) for current_item
    ui_.o(.text.UI_prev) refers to ui_.o(.bss.current_item_index) for current_item_index
    ui_.o(.ARM.exidx.text.UI_prev) refers (Special) to _printf_percent.o(.ARM.Collect$$_printf_percent$$00000000) for _printf_percent
    ui_.o(.ARM.exidx.text.UI_prev) refers (Special) to _printf_d.o(.ARM.Collect$$_printf_percent$$00000009) for _printf_d
    ui_.o(.ARM.exidx.text.UI_prev) refers (Special) to _printf_dec.o(.text) for _printf_int_dec
    ui_.o(.ARM.exidx.text.UI_prev) refers to ui_.o(.text.UI_prev) for [Anonymous Symbol]
    ui_.o(.text.UI_enter) refers (Special) to _printf_percent.o(.ARM.Collect$$_printf_percent$$00000000) for _printf_percent
    ui_.o(.text.UI_enter) refers (Special) to _printf_d.o(.ARM.Collect$$_printf_percent$$00000009) for _printf_d
    ui_.o(.text.UI_enter) refers (Special) to _printf_dec.o(.text) for _printf_int_dec
    ui_.o(.text.UI_enter) refers to ui_.o(.text.UI_updata) for UI_updata
    ui_.o(.text.UI_enter) refers to ui_.o(.bss.current_item) for current_item
    ui_.o(.text.UI_enter) refers to ui_.o(.bss.current_page) for current_page
    ui_.o(.text.UI_enter) refers to ui_.o(.bss.current_item_index) for current_item_index
    ui_.o(.ARM.exidx.text.UI_enter) refers (Special) to _printf_percent.o(.ARM.Collect$$_printf_percent$$00000000) for _printf_percent
    ui_.o(.ARM.exidx.text.UI_enter) refers (Special) to _printf_d.o(.ARM.Collect$$_printf_percent$$00000009) for _printf_d
    ui_.o(.ARM.exidx.text.UI_enter) refers (Special) to _printf_dec.o(.text) for _printf_int_dec
    ui_.o(.ARM.exidx.text.UI_enter) refers to ui_.o(.text.UI_enter) for [Anonymous Symbol]
    ui_.o(.text.task_one_init) refers (Special) to _printf_percent.o(.ARM.Collect$$_printf_percent$$00000000) for _printf_percent
    ui_.o(.text.task_one_init) refers (Special) to _printf_d.o(.ARM.Collect$$_printf_percent$$00000009) for _printf_d
    ui_.o(.text.task_one_init) refers (Special) to _printf_dec.o(.text) for _printf_int_dec
    ui_.o(.text.task_one_init) refers to time.o(.bss.task) for task
    ui_.o(.text.task_one_init) refers to my_task.o(.bss.task1_index) for task1_index
    ui_.o(.text.task_one_init) refers to dev_grayscale.o(.data.not_on_drak_line_flag) for not_on_drak_line_flag
    ui_.o(.text.task_one_init) refers to my_task.o(.text.task1) for task1
    ui_.o(.ARM.exidx.text.task_one_init) refers (Special) to _printf_percent.o(.ARM.Collect$$_printf_percent$$00000000) for _printf_percent
    ui_.o(.ARM.exidx.text.task_one_init) refers (Special) to _printf_d.o(.ARM.Collect$$_printf_percent$$00000009) for _printf_d
    ui_.o(.ARM.exidx.text.task_one_init) refers (Special) to _printf_dec.o(.text) for _printf_int_dec
    ui_.o(.ARM.exidx.text.task_one_init) refers to ui_.o(.text.task_one_init) for [Anonymous Symbol]
    ui_.o(.text.task_two_init) refers (Special) to _printf_percent.o(.ARM.Collect$$_printf_percent$$00000000) for _printf_percent
    ui_.o(.text.task_two_init) refers (Special) to _printf_d.o(.ARM.Collect$$_printf_percent$$00000009) for _printf_d
    ui_.o(.text.task_two_init) refers (Special) to _printf_dec.o(.text) for _printf_int_dec
    ui_.o(.text.task_two_init) refers to time.o(.bss.task) for task
    ui_.o(.text.task_two_init) refers to my_task.o(.bss.task2_index) for task2_index
    ui_.o(.text.task_two_init) refers to dev_grayscale.o(.data.not_on_drak_line_flag) for not_on_drak_line_flag
    ui_.o(.text.task_two_init) refers to my_task.o(.text.task2) for task2
    ui_.o(.ARM.exidx.text.task_two_init) refers (Special) to _printf_percent.o(.ARM.Collect$$_printf_percent$$00000000) for _printf_percent
    ui_.o(.ARM.exidx.text.task_two_init) refers (Special) to _printf_d.o(.ARM.Collect$$_printf_percent$$00000009) for _printf_d
    ui_.o(.ARM.exidx.text.task_two_init) refers (Special) to _printf_dec.o(.text) for _printf_int_dec
    ui_.o(.ARM.exidx.text.task_two_init) refers to ui_.o(.text.task_two_init) for [Anonymous Symbol]
    ui_.o(.text.task_three_init) refers (Special) to _printf_percent.o(.ARM.Collect$$_printf_percent$$00000000) for _printf_percent
    ui_.o(.text.task_three_init) refers (Special) to _printf_d.o(.ARM.Collect$$_printf_percent$$00000009) for _printf_d
    ui_.o(.text.task_three_init) refers (Special) to _printf_dec.o(.text) for _printf_int_dec
    ui_.o(.text.task_three_init) refers to time.o(.bss.task) for task
    ui_.o(.text.task_three_init) refers to my_task.o(.bss.Aim_Angle) for Aim_Angle
    ui_.o(.text.task_three_init) refers to my_task.o(.bss.task3_index) for task3_index
    ui_.o(.text.task_three_init) refers to my_task.o(.text.task3) for task3
    ui_.o(.ARM.exidx.text.task_three_init) refers (Special) to _printf_percent.o(.ARM.Collect$$_printf_percent$$00000000) for _printf_percent
    ui_.o(.ARM.exidx.text.task_three_init) refers (Special) to _printf_d.o(.ARM.Collect$$_printf_percent$$00000009) for _printf_d
    ui_.o(.ARM.exidx.text.task_three_init) refers (Special) to _printf_dec.o(.text) for _printf_int_dec
    ui_.o(.ARM.exidx.text.task_three_init) refers to ui_.o(.text.task_three_init) for [Anonymous Symbol]
    ui_.o(.text.task_four_init) refers (Special) to _printf_percent.o(.ARM.Collect$$_printf_percent$$00000000) for _printf_percent
    ui_.o(.text.task_four_init) refers (Special) to _printf_d.o(.ARM.Collect$$_printf_percent$$00000009) for _printf_d
    ui_.o(.text.task_four_init) refers (Special) to _printf_dec.o(.text) for _printf_int_dec
    ui_.o(.text.task_four_init) refers to time.o(.bss.task) for task
    ui_.o(.text.task_four_init) refers to my_task.o(.bss.Aim_Angle) for Aim_Angle
    ui_.o(.text.task_four_init) refers to my_task.o(.bss.task4_index) for task4_index
    ui_.o(.text.task_four_init) refers to my_task.o(.text.task4) for task4
    ui_.o(.ARM.exidx.text.task_four_init) refers (Special) to _printf_percent.o(.ARM.Collect$$_printf_percent$$00000000) for _printf_percent
    ui_.o(.ARM.exidx.text.task_four_init) refers (Special) to _printf_d.o(.ARM.Collect$$_printf_percent$$00000009) for _printf_d
    ui_.o(.ARM.exidx.text.task_four_init) refers (Special) to _printf_dec.o(.text) for _printf_int_dec
    ui_.o(.ARM.exidx.text.task_four_init) refers to ui_.o(.text.task_four_init) for [Anonymous Symbol]
    ui_.o(.text.task_five_init) refers (Special) to _printf_percent.o(.ARM.Collect$$_printf_percent$$00000000) for _printf_percent
    ui_.o(.text.task_five_init) refers (Special) to _printf_d.o(.ARM.Collect$$_printf_percent$$00000009) for _printf_d
    ui_.o(.text.task_five_init) refers (Special) to _printf_dec.o(.text) for _printf_int_dec
    ui_.o(.text.task_five_init) refers to time.o(.bss.task) for task
    ui_.o(.text.task_five_init) refers to my_task.o(.bss.Aim_Angle) for Aim_Angle
    ui_.o(.text.task_five_init) refers to my_task.o(.text.task5) for task5
    ui_.o(.text.task_five_init) refers to my_task.o(.bss.task5_index) for task5_index
    ui_.o(.ARM.exidx.text.task_five_init) refers (Special) to _printf_percent.o(.ARM.Collect$$_printf_percent$$00000000) for _printf_percent
    ui_.o(.ARM.exidx.text.task_five_init) refers (Special) to _printf_d.o(.ARM.Collect$$_printf_percent$$00000009) for _printf_d
    ui_.o(.ARM.exidx.text.task_five_init) refers (Special) to _printf_dec.o(.text) for _printf_int_dec
    ui_.o(.ARM.exidx.text.task_five_init) refers to ui_.o(.text.task_five_init) for [Anonymous Symbol]
    ui_.o(.text.angle_tuning_init) refers (Special) to _printf_percent.o(.ARM.Collect$$_printf_percent$$00000000) for _printf_percent
    ui_.o(.text.angle_tuning_init) refers (Special) to _printf_d.o(.ARM.Collect$$_printf_percent$$00000009) for _printf_d
    ui_.o(.text.angle_tuning_init) refers (Special) to _printf_dec.o(.text) for _printf_int_dec
    ui_.o(.text.angle_tuning_init) refers to time.o(.bss.task) for task
    ui_.o(.text.angle_tuning_init) refers to my_task.o(.text.turn_angle_tuning) for turn_angle_tuning
    ui_.o(.ARM.exidx.text.angle_tuning_init) refers (Special) to _printf_percent.o(.ARM.Collect$$_printf_percent$$00000000) for _printf_percent
    ui_.o(.ARM.exidx.text.angle_tuning_init) refers (Special) to _printf_d.o(.ARM.Collect$$_printf_percent$$00000009) for _printf_d
    ui_.o(.ARM.exidx.text.angle_tuning_init) refers (Special) to _printf_dec.o(.text) for _printf_int_dec
    ui_.o(.ARM.exidx.text.angle_tuning_init) refers to ui_.o(.text.angle_tuning_init) for [Anonymous Symbol]
    ui_.o(.text.add_time) refers (Special) to _printf_percent.o(.ARM.Collect$$_printf_percent$$00000000) for _printf_percent
    ui_.o(.text.add_time) refers (Special) to _printf_d.o(.ARM.Collect$$_printf_percent$$00000009) for _printf_d
    ui_.o(.text.add_time) refers (Special) to _printf_dec.o(.text) for _printf_int_dec
    ui_.o(.text.add_time) refers to __2sprintf.o(.text) for __2sprintf
    ui_.o(.text.add_time) refers to oled_draw.o(.text.DrawString) for DrawString
    ui_.o(.text.add_time) refers to my_task.o(.data.Waiting_Out_Black_Line_Time) for Waiting_Out_Black_Line_Time
    ui_.o(.text.add_time) refers to ui_.o(.bss.add_time.str) for [Anonymous Symbol]
    ui_.o(.text.add_time) refers to ui_.o(.rodata.str1.1) for [Anonymous Symbol]
    ui_.o(.ARM.exidx.text.add_time) refers (Special) to _printf_percent.o(.ARM.Collect$$_printf_percent$$00000000) for _printf_percent
    ui_.o(.ARM.exidx.text.add_time) refers (Special) to _printf_d.o(.ARM.Collect$$_printf_percent$$00000009) for _printf_d
    ui_.o(.ARM.exidx.text.add_time) refers (Special) to _printf_dec.o(.text) for _printf_int_dec
    ui_.o(.ARM.exidx.text.add_time) refers to ui_.o(.text.add_time) for [Anonymous Symbol]
    ui_.o(.text.minus_time) refers (Special) to _printf_percent.o(.ARM.Collect$$_printf_percent$$00000000) for _printf_percent
    ui_.o(.text.minus_time) refers (Special) to _printf_d.o(.ARM.Collect$$_printf_percent$$00000009) for _printf_d
    ui_.o(.text.minus_time) refers (Special) to _printf_dec.o(.text) for _printf_int_dec
    ui_.o(.text.minus_time) refers to __2sprintf.o(.text) for __2sprintf
    ui_.o(.text.minus_time) refers to oled_draw.o(.text.DrawString) for DrawString
    ui_.o(.text.minus_time) refers to my_task.o(.data.Waiting_Out_Black_Line_Time) for Waiting_Out_Black_Line_Time
    ui_.o(.text.minus_time) refers to ui_.o(.bss.minus_time.str) for [Anonymous Symbol]
    ui_.o(.text.minus_time) refers to ui_.o(.rodata.str1.1) for [Anonymous Symbol]
    ui_.o(.ARM.exidx.text.minus_time) refers (Special) to _printf_percent.o(.ARM.Collect$$_printf_percent$$00000000) for _printf_percent
    ui_.o(.ARM.exidx.text.minus_time) refers (Special) to _printf_d.o(.ARM.Collect$$_printf_percent$$00000009) for _printf_d
    ui_.o(.ARM.exidx.text.minus_time) refers (Special) to _printf_dec.o(.text) for _printf_int_dec
    ui_.o(.ARM.exidx.text.minus_time) refers to ui_.o(.text.minus_time) for [Anonymous Symbol]
    ui_.o(.text.test1) refers (Special) to _printf_percent.o(.ARM.Collect$$_printf_percent$$00000000) for _printf_percent
    ui_.o(.text.test1) refers (Special) to _printf_d.o(.ARM.Collect$$_printf_percent$$00000009) for _printf_d
    ui_.o(.text.test1) refers (Special) to _printf_dec.o(.text) for _printf_int_dec
    ui_.o(.text.test1) refers to h1_alloc.o(.text) for malloc
    ui_.o(.text.test1) refers to ui_.o(.bss.page1) for page1
    ui_.o(.text.test1) refers to ui_.o(.bss.page4) for page4
    ui_.o(.text.test1) refers to ui_.o(.bss.page3) for page3
    ui_.o(.text.test1) refers to ui_.o(.bss.page2) for page2
    ui_.o(.text.test1) refers to ui_.o(.text.task_four_init) for task_four_init
    ui_.o(.text.test1) refers to ui_.o(.text.task_three_init) for task_three_init
    ui_.o(.text.test1) refers to ui_.o(.text.task_two_init) for task_two_init
    ui_.o(.text.test1) refers to ui_.o(.text.task_one_init) for task_one_init
    ui_.o(.text.test1) refers to ui_.o(.text.task_five_init) for task_five_init
    ui_.o(.text.test1) refers to ui_.o(.text.angle_tuning_init) for angle_tuning_init
    ui_.o(.text.test1) refers to ui_.o(.text.minus_time) for minus_time
    ui_.o(.text.test1) refers to ui_.o(.text.add_time) for add_time
    ui_.o(.text.test1) refers to ui_.o(.bss.current_page) for current_page
    ui_.o(.text.test1) refers to ui_.o(.bss.current_item) for current_item
    ui_.o(.ARM.exidx.text.test1) refers (Special) to _printf_percent.o(.ARM.Collect$$_printf_percent$$00000000) for _printf_percent
    ui_.o(.ARM.exidx.text.test1) refers (Special) to _printf_d.o(.ARM.Collect$$_printf_percent$$00000009) for _printf_d
    ui_.o(.ARM.exidx.text.test1) refers (Special) to _printf_dec.o(.text) for _printf_int_dec
    ui_.o(.ARM.exidx.text.test1) refers to ui_.o(.text.test1) for [Anonymous Symbol]
    ui_.o(.bss.current_item_index) refers (Special) to _printf_percent.o(.ARM.Collect$$_printf_percent$$00000000) for _printf_percent
    ui_.o(.bss.current_item_index) refers (Special) to _printf_d.o(.ARM.Collect$$_printf_percent$$00000009) for _printf_d
    ui_.o(.bss.current_item_index) refers (Special) to _printf_dec.o(.text) for _printf_int_dec
    ui_.o(.bss.current_page) refers (Special) to _printf_percent.o(.ARM.Collect$$_printf_percent$$00000000) for _printf_percent
    ui_.o(.bss.current_page) refers (Special) to _printf_d.o(.ARM.Collect$$_printf_percent$$00000009) for _printf_d
    ui_.o(.bss.current_page) refers (Special) to _printf_dec.o(.text) for _printf_int_dec
    ui_.o(.bss.current_item) refers (Special) to _printf_percent.o(.ARM.Collect$$_printf_percent$$00000000) for _printf_percent
    ui_.o(.bss.current_item) refers (Special) to _printf_d.o(.ARM.Collect$$_printf_percent$$00000009) for _printf_d
    ui_.o(.bss.current_item) refers (Special) to _printf_dec.o(.text) for _printf_int_dec
    ui_.o(.bss.add_time.str) refers (Special) to _printf_percent.o(.ARM.Collect$$_printf_percent$$00000000) for _printf_percent
    ui_.o(.bss.add_time.str) refers (Special) to _printf_d.o(.ARM.Collect$$_printf_percent$$00000009) for _printf_d
    ui_.o(.bss.add_time.str) refers (Special) to _printf_dec.o(.text) for _printf_int_dec
    ui_.o(.rodata.str1.1) refers (Special) to _printf_percent.o(.ARM.Collect$$_printf_percent$$00000000) for _printf_percent
    ui_.o(.rodata.str1.1) refers (Special) to _printf_d.o(.ARM.Collect$$_printf_percent$$00000009) for _printf_d
    ui_.o(.rodata.str1.1) refers (Special) to _printf_dec.o(.text) for _printf_int_dec
    ui_.o(.bss.minus_time.str) refers (Special) to _printf_percent.o(.ARM.Collect$$_printf_percent$$00000000) for _printf_percent
    ui_.o(.bss.minus_time.str) refers (Special) to _printf_d.o(.ARM.Collect$$_printf_percent$$00000009) for _printf_d
    ui_.o(.bss.minus_time.str) refers (Special) to _printf_dec.o(.text) for _printf_int_dec
    ui_.o(.bss.page1) refers (Special) to _printf_percent.o(.ARM.Collect$$_printf_percent$$00000000) for _printf_percent
    ui_.o(.bss.page1) refers (Special) to _printf_d.o(.ARM.Collect$$_printf_percent$$00000009) for _printf_d
    ui_.o(.bss.page1) refers (Special) to _printf_dec.o(.text) for _printf_int_dec
    ui_.o(.bss.page2) refers (Special) to _printf_percent.o(.ARM.Collect$$_printf_percent$$00000000) for _printf_percent
    ui_.o(.bss.page2) refers (Special) to _printf_d.o(.ARM.Collect$$_printf_percent$$00000009) for _printf_d
    ui_.o(.bss.page2) refers (Special) to _printf_dec.o(.text) for _printf_int_dec
    ui_.o(.bss.page3) refers (Special) to _printf_percent.o(.ARM.Collect$$_printf_percent$$00000000) for _printf_percent
    ui_.o(.bss.page3) refers (Special) to _printf_d.o(.ARM.Collect$$_printf_percent$$00000009) for _printf_d
    ui_.o(.bss.page3) refers (Special) to _printf_dec.o(.text) for _printf_int_dec
    ui_.o(.bss.page4) refers (Special) to _printf_percent.o(.ARM.Collect$$_printf_percent$$00000000) for _printf_percent
    ui_.o(.bss.page4) refers (Special) to _printf_d.o(.ARM.Collect$$_printf_percent$$00000009) for _printf_d
    ui_.o(.bss.page4) refers (Special) to _printf_dec.o(.text) for _printf_int_dec
    dl_common.o(.ARM.exidx.text.DL_Common_delayCycles) refers to dl_common.o(.text.DL_Common_delayCycles) for [Anonymous Symbol]
    dl_i2c.o(.text.DL_I2C_setClockConfig) refers to dl_i2c.o(.text.DL_Common_updateReg) for DL_Common_updateReg
    dl_i2c.o(.ARM.exidx.text.DL_I2C_setClockConfig) refers to dl_i2c.o(.text.DL_I2C_setClockConfig) for [Anonymous Symbol]
    dl_i2c.o(.ARM.exidx.text.DL_Common_updateReg) refers to dl_i2c.o(.text.DL_Common_updateReg) for [Anonymous Symbol]
    dl_i2c.o(.ARM.exidx.text.DL_I2C_getClockConfig) refers to dl_i2c.o(.text.DL_I2C_getClockConfig) for [Anonymous Symbol]
    dl_i2c.o(.text.DL_I2C_fillControllerTXFIFO) refers to dl_i2c.o(.text.DL_I2C_isControllerTXFIFOFull) for DL_I2C_isControllerTXFIFOFull
    dl_i2c.o(.text.DL_I2C_fillControllerTXFIFO) refers to dl_i2c.o(.text.DL_I2C_transmitControllerData) for DL_I2C_transmitControllerData
    dl_i2c.o(.ARM.exidx.text.DL_I2C_fillControllerTXFIFO) refers to dl_i2c.o(.text.DL_I2C_fillControllerTXFIFO) for [Anonymous Symbol]
    dl_i2c.o(.ARM.exidx.text.DL_I2C_isControllerTXFIFOFull) refers to dl_i2c.o(.text.DL_I2C_isControllerTXFIFOFull) for [Anonymous Symbol]
    dl_i2c.o(.ARM.exidx.text.DL_I2C_transmitControllerData) refers to dl_i2c.o(.text.DL_I2C_transmitControllerData) for [Anonymous Symbol]
    dl_i2c.o(.text.DL_I2C_flushControllerTXFIFO) refers to dl_i2c.o(.text.DL_I2C_startFlushControllerTXFIFO) for DL_I2C_startFlushControllerTXFIFO
    dl_i2c.o(.text.DL_I2C_flushControllerTXFIFO) refers to dl_i2c.o(.text.DL_I2C_isControllerTXFIFOEmpty) for DL_I2C_isControllerTXFIFOEmpty
    dl_i2c.o(.text.DL_I2C_flushControllerTXFIFO) refers to dl_i2c.o(.text.DL_I2C_stopFlushControllerTXFIFO) for DL_I2C_stopFlushControllerTXFIFO
    dl_i2c.o(.ARM.exidx.text.DL_I2C_flushControllerTXFIFO) refers to dl_i2c.o(.text.DL_I2C_flushControllerTXFIFO) for [Anonymous Symbol]
    dl_i2c.o(.ARM.exidx.text.DL_I2C_startFlushControllerTXFIFO) refers to dl_i2c.o(.text.DL_I2C_startFlushControllerTXFIFO) for [Anonymous Symbol]
    dl_i2c.o(.ARM.exidx.text.DL_I2C_isControllerTXFIFOEmpty) refers to dl_i2c.o(.text.DL_I2C_isControllerTXFIFOEmpty) for [Anonymous Symbol]
    dl_i2c.o(.ARM.exidx.text.DL_I2C_stopFlushControllerTXFIFO) refers to dl_i2c.o(.text.DL_I2C_stopFlushControllerTXFIFO) for [Anonymous Symbol]
    dl_i2c.o(.text.DL_I2C_flushControllerRXFIFO) refers to dl_i2c.o(.text.DL_I2C_startFlushControllerRXFIFO) for DL_I2C_startFlushControllerRXFIFO
    dl_i2c.o(.text.DL_I2C_flushControllerRXFIFO) refers to dl_i2c.o(.text.DL_I2C_isControllerRXFIFOEmpty) for DL_I2C_isControllerRXFIFOEmpty
    dl_i2c.o(.text.DL_I2C_flushControllerRXFIFO) refers to dl_i2c.o(.text.DL_I2C_stopFlushControllerRXFIFO) for DL_I2C_stopFlushControllerRXFIFO
    dl_i2c.o(.ARM.exidx.text.DL_I2C_flushControllerRXFIFO) refers to dl_i2c.o(.text.DL_I2C_flushControllerRXFIFO) for [Anonymous Symbol]
    dl_i2c.o(.ARM.exidx.text.DL_I2C_startFlushControllerRXFIFO) refers to dl_i2c.o(.text.DL_I2C_startFlushControllerRXFIFO) for [Anonymous Symbol]
    dl_i2c.o(.ARM.exidx.text.DL_I2C_isControllerRXFIFOEmpty) refers to dl_i2c.o(.text.DL_I2C_isControllerRXFIFOEmpty) for [Anonymous Symbol]
    dl_i2c.o(.ARM.exidx.text.DL_I2C_stopFlushControllerRXFIFO) refers to dl_i2c.o(.text.DL_I2C_stopFlushControllerRXFIFO) for [Anonymous Symbol]
    dl_i2c.o(.text.DL_I2C_fillTargetTXFIFO) refers to dl_i2c.o(.text.DL_I2C_isTargetTXFIFOFull) for DL_I2C_isTargetTXFIFOFull
    dl_i2c.o(.text.DL_I2C_fillTargetTXFIFO) refers to dl_i2c.o(.text.DL_I2C_transmitTargetData) for DL_I2C_transmitTargetData
    dl_i2c.o(.ARM.exidx.text.DL_I2C_fillTargetTXFIFO) refers to dl_i2c.o(.text.DL_I2C_fillTargetTXFIFO) for [Anonymous Symbol]
    dl_i2c.o(.ARM.exidx.text.DL_I2C_isTargetTXFIFOFull) refers to dl_i2c.o(.text.DL_I2C_isTargetTXFIFOFull) for [Anonymous Symbol]
    dl_i2c.o(.ARM.exidx.text.DL_I2C_transmitTargetData) refers to dl_i2c.o(.text.DL_I2C_transmitTargetData) for [Anonymous Symbol]
    dl_i2c.o(.text.DL_I2C_flushTargetTXFIFO) refers to dl_i2c.o(.text.DL_I2C_startFlushTargetTXFIFO) for DL_I2C_startFlushTargetTXFIFO
    dl_i2c.o(.text.DL_I2C_flushTargetTXFIFO) refers to dl_i2c.o(.text.DL_I2C_isTargetTXFIFOEmpty) for DL_I2C_isTargetTXFIFOEmpty
    dl_i2c.o(.text.DL_I2C_flushTargetTXFIFO) refers to dl_i2c.o(.text.DL_I2C_stopFlushTargetTXFIFO) for DL_I2C_stopFlushTargetTXFIFO
    dl_i2c.o(.ARM.exidx.text.DL_I2C_flushTargetTXFIFO) refers to dl_i2c.o(.text.DL_I2C_flushTargetTXFIFO) for [Anonymous Symbol]
    dl_i2c.o(.ARM.exidx.text.DL_I2C_startFlushTargetTXFIFO) refers to dl_i2c.o(.text.DL_I2C_startFlushTargetTXFIFO) for [Anonymous Symbol]
    dl_i2c.o(.ARM.exidx.text.DL_I2C_isTargetTXFIFOEmpty) refers to dl_i2c.o(.text.DL_I2C_isTargetTXFIFOEmpty) for [Anonymous Symbol]
    dl_i2c.o(.ARM.exidx.text.DL_I2C_stopFlushTargetTXFIFO) refers to dl_i2c.o(.text.DL_I2C_stopFlushTargetTXFIFO) for [Anonymous Symbol]
    dl_i2c.o(.text.DL_I2C_flushTargetRXFIFO) refers to dl_i2c.o(.text.DL_I2C_startFlushTargetRXFIFO) for DL_I2C_startFlushTargetRXFIFO
    dl_i2c.o(.text.DL_I2C_flushTargetRXFIFO) refers to dl_i2c.o(.text.DL_I2C_isTargetRXFIFOEmpty) for DL_I2C_isTargetRXFIFOEmpty
    dl_i2c.o(.text.DL_I2C_flushTargetRXFIFO) refers to dl_i2c.o(.text.DL_I2C_stopFlushTargetRXFIFO) for DL_I2C_stopFlushTargetRXFIFO
    dl_i2c.o(.ARM.exidx.text.DL_I2C_flushTargetRXFIFO) refers to dl_i2c.o(.text.DL_I2C_flushTargetRXFIFO) for [Anonymous Symbol]
    dl_i2c.o(.ARM.exidx.text.DL_I2C_startFlushTargetRXFIFO) refers to dl_i2c.o(.text.DL_I2C_startFlushTargetRXFIFO) for [Anonymous Symbol]
    dl_i2c.o(.ARM.exidx.text.DL_I2C_isTargetRXFIFOEmpty) refers to dl_i2c.o(.text.DL_I2C_isTargetRXFIFOEmpty) for [Anonymous Symbol]
    dl_i2c.o(.ARM.exidx.text.DL_I2C_stopFlushTargetRXFIFO) refers to dl_i2c.o(.text.DL_I2C_stopFlushTargetRXFIFO) for [Anonymous Symbol]
    dl_i2c.o(.text.DL_I2C_transmitTargetDataBlocking) refers to dl_i2c.o(.text.DL_I2C_getTargetStatus) for DL_I2C_getTargetStatus
    dl_i2c.o(.text.DL_I2C_transmitTargetDataBlocking) refers to dl_i2c.o(.text.DL_I2C_transmitTargetData) for DL_I2C_transmitTargetData
    dl_i2c.o(.ARM.exidx.text.DL_I2C_transmitTargetDataBlocking) refers to dl_i2c.o(.text.DL_I2C_transmitTargetDataBlocking) for [Anonymous Symbol]
    dl_i2c.o(.ARM.exidx.text.DL_I2C_getTargetStatus) refers to dl_i2c.o(.text.DL_I2C_getTargetStatus) for [Anonymous Symbol]
    dl_i2c.o(.text.DL_I2C_transmitTargetDataCheck) refers to dl_i2c.o(.text.DL_I2C_isTargetTXFIFOFull) for DL_I2C_isTargetTXFIFOFull
    dl_i2c.o(.text.DL_I2C_transmitTargetDataCheck) refers to dl_i2c.o(.text.DL_I2C_transmitTargetData) for DL_I2C_transmitTargetData
    dl_i2c.o(.ARM.exidx.text.DL_I2C_transmitTargetDataCheck) refers to dl_i2c.o(.text.DL_I2C_transmitTargetDataCheck) for [Anonymous Symbol]
    dl_i2c.o(.text.DL_I2C_receiveTargetDataBlocking) refers to dl_i2c.o(.text.DL_I2C_getTargetStatus) for DL_I2C_getTargetStatus
    dl_i2c.o(.text.DL_I2C_receiveTargetDataBlocking) refers to dl_i2c.o(.text.DL_I2C_receiveTargetData) for DL_I2C_receiveTargetData
    dl_i2c.o(.ARM.exidx.text.DL_I2C_receiveTargetDataBlocking) refers to dl_i2c.o(.text.DL_I2C_receiveTargetDataBlocking) for [Anonymous Symbol]
    dl_i2c.o(.ARM.exidx.text.DL_I2C_receiveTargetData) refers to dl_i2c.o(.text.DL_I2C_receiveTargetData) for [Anonymous Symbol]
    dl_i2c.o(.text.DL_I2C_receiveTargetDataCheck) refers to dl_i2c.o(.text.DL_I2C_isTargetRXFIFOEmpty) for DL_I2C_isTargetRXFIFOEmpty
    dl_i2c.o(.text.DL_I2C_receiveTargetDataCheck) refers to dl_i2c.o(.text.DL_I2C_receiveTargetData) for DL_I2C_receiveTargetData
    dl_i2c.o(.ARM.exidx.text.DL_I2C_receiveTargetDataCheck) refers to dl_i2c.o(.text.DL_I2C_receiveTargetDataCheck) for [Anonymous Symbol]
    dl_timer.o(.ARM.exidx.text.DL_Timer_setClockConfig) refers to dl_timer.o(.text.DL_Timer_setClockConfig) for [Anonymous Symbol]
    dl_timer.o(.ARM.exidx.text.DL_Timer_getClockConfig) refers to dl_timer.o(.text.DL_Timer_getClockConfig) for [Anonymous Symbol]
    dl_timer.o(.text.DL_Timer_initTimerMode) refers to dl_timer.o(.text.DL_Timer_setLoadValue) for DL_Timer_setLoadValue
    dl_timer.o(.text.DL_Timer_initTimerMode) refers to dl_timer.o(.text.DL_Timer_setCounterValueAfterEnable) for DL_Timer_setCounterValueAfterEnable
    dl_timer.o(.text.DL_Timer_initTimerMode) refers to dl_timer.o(.text.DL_Timer_setCaptureCompareValue) for DL_Timer_setCaptureCompareValue
    dl_timer.o(.text.DL_Timer_initTimerMode) refers to dl_timer.o(.text.DL_Timer_setCaptureCompareCtl) for DL_Timer_setCaptureCompareCtl
    dl_timer.o(.ARM.exidx.text.DL_Timer_initTimerMode) refers to dl_timer.o(.text.DL_Timer_initTimerMode) for [Anonymous Symbol]
    dl_timer.o(.ARM.exidx.text.DL_Timer_setLoadValue) refers to dl_timer.o(.text.DL_Timer_setLoadValue) for [Anonymous Symbol]
    dl_timer.o(.text.DL_Timer_setCounterValueAfterEnable) refers to dl_timer.o(.text.DL_Common_updateReg) for DL_Common_updateReg
    dl_timer.o(.ARM.exidx.text.DL_Timer_setCounterValueAfterEnable) refers to dl_timer.o(.text.DL_Timer_setCounterValueAfterEnable) for [Anonymous Symbol]
    dl_timer.o(.ARM.exidx.text.DL_Timer_setCaptureCompareValue) refers to dl_timer.o(.text.DL_Timer_setCaptureCompareValue) for [Anonymous Symbol]
    dl_timer.o(.text.DL_Timer_setCaptureCompareCtl) refers to dl_timer.o(.text.DL_Common_updateReg) for DL_Common_updateReg
    dl_timer.o(.ARM.exidx.text.DL_Timer_setCaptureCompareCtl) refers to dl_timer.o(.text.DL_Timer_setCaptureCompareCtl) for [Anonymous Symbol]
    dl_timer.o(.text.DL_Timer_initCaptureMode) refers to dl_timer.o(.text.DL_Timer_getInChanConfig) for DL_Timer_getInChanConfig
    dl_timer.o(.text.DL_Timer_initCaptureMode) refers to dl_timer.o(.text.DL_Timer_setCaptureCompareInput) for DL_Timer_setCaptureCompareInput
    dl_timer.o(.text.DL_Timer_initCaptureMode) refers to dl_timer.o(.text.DL_Timer_setLoadValue) for DL_Timer_setLoadValue
    dl_timer.o(.text.DL_Timer_initCaptureMode) refers to dl_timer.o(.text.DL_Timer_setCaptureCompareCtl) for DL_Timer_setCaptureCompareCtl
    dl_timer.o(.text.DL_Timer_initCaptureMode) refers to dl_timer.o(.text.DL_Timer_setCCPDirection) for DL_Timer_setCCPDirection
    dl_timer.o(.text.DL_Timer_initCaptureMode) refers to dl_timer.o(.text.DL_Common_updateReg) for DL_Common_updateReg
    dl_timer.o(.ARM.exidx.text.DL_Timer_initCaptureMode) refers to dl_timer.o(.text.DL_Timer_initCaptureMode) for [Anonymous Symbol]
    dl_timer.o(.ARM.exidx.text.DL_Timer_getInChanConfig) refers to dl_timer.o(.text.DL_Timer_getInChanConfig) for [Anonymous Symbol]
    dl_timer.o(.text.DL_Timer_setCaptureCompareInput) refers to dl_timer.o(.text.DL_Common_updateReg) for DL_Common_updateReg
    dl_timer.o(.ARM.exidx.text.DL_Timer_setCaptureCompareInput) refers to dl_timer.o(.text.DL_Timer_setCaptureCompareInput) for [Anonymous Symbol]
    dl_timer.o(.ARM.exidx.text.DL_Timer_setCCPDirection) refers to dl_timer.o(.text.DL_Timer_setCCPDirection) for [Anonymous Symbol]
    dl_timer.o(.ARM.exidx.text.DL_Common_updateReg) refers to dl_timer.o(.text.DL_Common_updateReg) for [Anonymous Symbol]
    dl_timer.o(.text.DL_Timer_initCaptureTriggerMode) refers to dl_timer.o(.text.DL_Timer_setLoadValue) for DL_Timer_setLoadValue
    dl_timer.o(.text.DL_Timer_initCaptureTriggerMode) refers to dl_timer.o(.text.DL_Timer_setCaptureCompareInput) for DL_Timer_setCaptureCompareInput
    dl_timer.o(.text.DL_Timer_initCaptureTriggerMode) refers to dl_timer.o(.text.DL_Timer_setCaptureCompareCtl) for DL_Timer_setCaptureCompareCtl
    dl_timer.o(.text.DL_Timer_initCaptureTriggerMode) refers to dl_timer.o(.text.DL_Common_updateReg) for DL_Common_updateReg
    dl_timer.o(.ARM.exidx.text.DL_Timer_initCaptureTriggerMode) refers to dl_timer.o(.text.DL_Timer_initCaptureTriggerMode) for [Anonymous Symbol]
    dl_timer.o(.text.DL_Timer_initCaptureCombinedMode) refers to dl_timer.o(.text.DL_Timer_getInChanConfig) for DL_Timer_getInChanConfig
    dl_timer.o(.text.DL_Timer_initCaptureCombinedMode) refers to dl_timer.o(.text.DL_Timer_getInChanPairConfig) for DL_Timer_getInChanPairConfig
    dl_timer.o(.text.DL_Timer_initCaptureCombinedMode) refers to dl_timer.o(.text.DL_Timer_setLoadValue) for DL_Timer_setLoadValue
    dl_timer.o(.text.DL_Timer_initCaptureCombinedMode) refers to dl_timer.o(.text.DL_Timer_setCaptureCompareInput) for DL_Timer_setCaptureCompareInput
    dl_timer.o(.text.DL_Timer_initCaptureCombinedMode) refers to dl_timer.o(.text.DL_Timer_setCaptureCompareCtl) for DL_Timer_setCaptureCompareCtl
    dl_timer.o(.text.DL_Timer_initCaptureCombinedMode) refers to dl_timer.o(.text.DL_Timer_setCCPDirection) for DL_Timer_setCCPDirection
    dl_timer.o(.text.DL_Timer_initCaptureCombinedMode) refers to dl_timer.o(.text.DL_Common_updateReg) for DL_Common_updateReg
    dl_timer.o(.ARM.exidx.text.DL_Timer_initCaptureCombinedMode) refers to dl_timer.o(.text.DL_Timer_initCaptureCombinedMode) for [Anonymous Symbol]
    dl_timer.o(.ARM.exidx.text.DL_Timer_getInChanPairConfig) refers to dl_timer.o(.text.DL_Timer_getInChanPairConfig) for [Anonymous Symbol]
    dl_timer.o(.text.DL_Timer_initCompareMode) refers to dl_timer.o(.text.DL_Timer_getInChanConfig) for DL_Timer_getInChanConfig
    dl_timer.o(.text.DL_Timer_initCompareMode) refers to dl_timer.o(.text.DL_Timer_setCaptureCompareInput) for DL_Timer_setCaptureCompareInput
    dl_timer.o(.text.DL_Timer_initCompareMode) refers to dl_timer.o(.text.DL_Timer_setLoadValue) for DL_Timer_setLoadValue
    dl_timer.o(.text.DL_Timer_initCompareMode) refers to dl_timer.o(.text.DL_Timer_setCaptureCompareCtl) for DL_Timer_setCaptureCompareCtl
    dl_timer.o(.text.DL_Timer_initCompareMode) refers to dl_timer.o(.text.DL_Common_updateReg) for DL_Common_updateReg
    dl_timer.o(.ARM.exidx.text.DL_Timer_initCompareMode) refers to dl_timer.o(.text.DL_Timer_initCompareMode) for [Anonymous Symbol]
    dl_timer.o(.text.DL_Timer_initCompareTriggerMode) refers to dl_timer.o(.text.DL_Timer_setCaptureCompareInput) for DL_Timer_setCaptureCompareInput
    dl_timer.o(.text.DL_Timer_initCompareTriggerMode) refers to dl_timer.o(.text.DL_Timer_setLoadValue) for DL_Timer_setLoadValue
    dl_timer.o(.text.DL_Timer_initCompareTriggerMode) refers to dl_timer.o(.text.DL_Timer_setCaptureCompareCtl) for DL_Timer_setCaptureCompareCtl
    dl_timer.o(.text.DL_Timer_initCompareTriggerMode) refers to dl_timer.o(.text.DL_Common_updateReg) for DL_Common_updateReg
    dl_timer.o(.ARM.exidx.text.DL_Timer_initCompareTriggerMode) refers to dl_timer.o(.text.DL_Timer_initCompareTriggerMode) for [Anonymous Symbol]
    dl_timer.o(.text.DL_Timer_initPWMMode) refers to dl_timer.o(.text.DL_Timer_setLoadValue) for DL_Timer_setLoadValue
    dl_timer.o(.text.DL_Timer_initPWMMode) refers to dl_timer.o(.text.DL_Timer_setCaptureCompareAction) for DL_Timer_setCaptureCompareAction
    dl_timer.o(.text.DL_Timer_initPWMMode) refers to dl_timer.o(.text.DL_Timer_setCounterValueAfterEnable) for DL_Timer_setCounterValueAfterEnable
    dl_timer.o(.text.DL_Timer_initPWMMode) refers to dl_timer.o(.text.DL_Timer_setCaptureCompareCtl) for DL_Timer_setCaptureCompareCtl
    dl_timer.o(.text.DL_Timer_initPWMMode) refers to dl_timer.o(.text.DL_Timer_setCaptureCompareOutCtl) for DL_Timer_setCaptureCompareOutCtl
    dl_timer.o(.text.DL_Timer_initPWMMode) refers to dl_timer.o(.text.DL_Timer_setCaptureCompareInput) for DL_Timer_setCaptureCompareInput
    dl_timer.o(.text.DL_Timer_initPWMMode) refers to dl_timer.o(.text.DL_Common_updateReg) for DL_Common_updateReg
    dl_timer.o(.ARM.exidx.text.DL_Timer_initPWMMode) refers to dl_timer.o(.text.DL_Timer_initPWMMode) for [Anonymous Symbol]
    dl_timer.o(.text.DL_Timer_setCaptureCompareAction) refers to dl_timer.o(.text.DL_Common_updateReg) for DL_Common_updateReg
    dl_timer.o(.ARM.exidx.text.DL_Timer_setCaptureCompareAction) refers to dl_timer.o(.text.DL_Timer_setCaptureCompareAction) for [Anonymous Symbol]
    dl_timer.o(.ARM.exidx.text.DL_Timer_setCaptureCompareOutCtl) refers to dl_timer.o(.text.DL_Timer_setCaptureCompareOutCtl) for [Anonymous Symbol]
    dl_timer.o(.ARM.exidx.text.DL_Timer_getCaptureCompareValue) refers to dl_timer.o(.text.DL_Timer_getCaptureCompareValue) for [Anonymous Symbol]
    dl_timer.o(.ARM.exidx.text.DL_Timer_getCaptureCompareCtl) refers to dl_timer.o(.text.DL_Timer_getCaptureCompareCtl) for [Anonymous Symbol]
    dl_timer.o(.text.DL_Timer_setSecondCompSrcDn) refers to dl_timer.o(.text.DL_Common_updateReg) for DL_Common_updateReg
    dl_timer.o(.ARM.exidx.text.DL_Timer_setSecondCompSrcDn) refers to dl_timer.o(.text.DL_Timer_setSecondCompSrcDn) for [Anonymous Symbol]
    dl_timer.o(.ARM.exidx.text.DL_Timer_getSecondCompSrcDn) refers to dl_timer.o(.text.DL_Timer_getSecondCompSrcDn) for [Anonymous Symbol]
    dl_timer.o(.text.DL_Timer_setSecondCompSrcUp) refers to dl_timer.o(.text.DL_Common_updateReg) for DL_Common_updateReg
    dl_timer.o(.ARM.exidx.text.DL_Timer_setSecondCompSrcUp) refers to dl_timer.o(.text.DL_Timer_setSecondCompSrcUp) for [Anonymous Symbol]
    dl_timer.o(.ARM.exidx.text.DL_Timer_getSecondCompSrcUp) refers to dl_timer.o(.text.DL_Timer_getSecondCompSrcUp) for [Anonymous Symbol]
    dl_timer.o(.text.DL_Timer_setSecondCompActionDn) refers to dl_timer.o(.text.DL_Common_updateReg) for DL_Common_updateReg
    dl_timer.o(.ARM.exidx.text.DL_Timer_setSecondCompActionDn) refers to dl_timer.o(.text.DL_Timer_setSecondCompActionDn) for [Anonymous Symbol]
    dl_timer.o(.ARM.exidx.text.DL_Timer_getSecondCompActionDn) refers to dl_timer.o(.text.DL_Timer_getSecondCompActionDn) for [Anonymous Symbol]
    dl_timer.o(.text.DL_Timer_setSecondCompActionUp) refers to dl_timer.o(.text.DL_Common_updateReg) for DL_Common_updateReg
    dl_timer.o(.ARM.exidx.text.DL_Timer_setSecondCompActionUp) refers to dl_timer.o(.text.DL_Timer_setSecondCompActionUp) for [Anonymous Symbol]
    dl_timer.o(.ARM.exidx.text.DL_Timer_getSecondCompActionUp) refers to dl_timer.o(.text.DL_Timer_getSecondCompActionUp) for [Anonymous Symbol]
    dl_timer.o(.ARM.exidx.text.DL_Timer_enableSuppressionOfCompEvent) refers to dl_timer.o(.text.DL_Timer_enableSuppressionOfCompEvent) for [Anonymous Symbol]
    dl_timer.o(.ARM.exidx.text.DL_Timer_disableSuppressionOfCompEvent) refers to dl_timer.o(.text.DL_Timer_disableSuppressionOfCompEvent) for [Anonymous Symbol]
    dl_timer.o(.text.DL_Timer_setCaptCompUpdateMethod) refers to dl_timer.o(.text.DL_Common_updateReg) for DL_Common_updateReg
    dl_timer.o(.ARM.exidx.text.DL_Timer_setCaptCompUpdateMethod) refers to dl_timer.o(.text.DL_Timer_setCaptCompUpdateMethod) for [Anonymous Symbol]
    dl_timer.o(.ARM.exidx.text.DL_Timer_getCaptCompUpdateMethod) refers to dl_timer.o(.text.DL_Timer_getCaptCompUpdateMethod) for [Anonymous Symbol]
    dl_timer.o(.ARM.exidx.text.DL_Timer_getCaptureCompareOutCtl) refers to dl_timer.o(.text.DL_Timer_getCaptureCompareOutCtl) for [Anonymous Symbol]
    dl_timer.o(.ARM.exidx.text.DL_Timer_getCaptureCompareAction) refers to dl_timer.o(.text.DL_Timer_getCaptureCompareAction) for [Anonymous Symbol]
    dl_timer.o(.text.DL_Timer_overrideCCPOut) refers to dl_timer.o(.text.DL_Common_updateReg) for DL_Common_updateReg
    dl_timer.o(.ARM.exidx.text.DL_Timer_overrideCCPOut) refers to dl_timer.o(.text.DL_Timer_overrideCCPOut) for [Anonymous Symbol]
    dl_timer.o(.ARM.exidx.text.DL_Timer_getCaptureCompareInput) refers to dl_timer.o(.text.DL_Timer_getCaptureCompareInput) for [Anonymous Symbol]
    dl_timer.o(.text.DL_Timer_setCaptureCompareInputFilter) refers to dl_timer.o(.text.DL_Common_updateReg) for DL_Common_updateReg
    dl_timer.o(.ARM.exidx.text.DL_Timer_setCaptureCompareInputFilter) refers to dl_timer.o(.text.DL_Timer_setCaptureCompareInputFilter) for [Anonymous Symbol]
    dl_timer.o(.ARM.exidx.text.DL_Timer_getCaptureCompareInputFilter) refers to dl_timer.o(.text.DL_Timer_getCaptureCompareInputFilter) for [Anonymous Symbol]
    dl_timer.o(.ARM.exidx.text.DL_Timer_enableCaptureCompareInputFilter) refers to dl_timer.o(.text.DL_Timer_enableCaptureCompareInputFilter) for [Anonymous Symbol]
    dl_timer.o(.ARM.exidx.text.DL_Timer_disableCaptureCompareInputFilter) refers to dl_timer.o(.text.DL_Timer_disableCaptureCompareInputFilter) for [Anonymous Symbol]
    dl_timer.o(.ARM.exidx.text.DL_Timer_isCaptureCompareInputFilterEnabled) refers to dl_timer.o(.text.DL_Timer_isCaptureCompareInputFilterEnabled) for [Anonymous Symbol]
    dl_timer.o(.ARM.exidx.text.DL_Timer_saveConfiguration) refers to dl_timer.o(.text.DL_Timer_saveConfiguration) for [Anonymous Symbol]
    dl_timer.o(.ARM.exidx.text.DL_Timer_restoreConfiguration) refers to dl_timer.o(.text.DL_Timer_restoreConfiguration) for [Anonymous Symbol]
    dl_timer.o(.text.DL_TimerA_initPWMMode) refers to dl_timer.o(.text.DL_Timer_setCaptureCompareAction) for DL_Timer_setCaptureCompareAction
    dl_timer.o(.text.DL_TimerA_initPWMMode) refers to dl_timer.o(.text.DL_Timer_setCaptureCompareCtl) for DL_Timer_setCaptureCompareCtl
    dl_timer.o(.text.DL_TimerA_initPWMMode) refers to dl_timer.o(.text.DL_Timer_setCaptureCompareOutCtl) for DL_Timer_setCaptureCompareOutCtl
    dl_timer.o(.text.DL_TimerA_initPWMMode) refers to dl_timer.o(.text.DL_Timer_setCaptureCompareInput) for DL_Timer_setCaptureCompareInput
    dl_timer.o(.text.DL_TimerA_initPWMMode) refers to dl_timer.o(.text.DL_Timer_initPWMMode) for DL_Timer_initPWMMode
    dl_timer.o(.ARM.exidx.text.DL_TimerA_initPWMMode) refers to dl_timer.o(.text.DL_TimerA_initPWMMode) for [Anonymous Symbol]
    dl_timer.o(.text.DL_Timer_setFaultSourceConfig) refers to dl_timer.o(.text.DL_Common_updateReg) for DL_Common_updateReg
    dl_timer.o(.ARM.exidx.text.DL_Timer_setFaultSourceConfig) refers to dl_timer.o(.text.DL_Timer_setFaultSourceConfig) for [Anonymous Symbol]
    dl_timer.o(.ARM.exidx.text.DL_Timer_getFaultSourceConfig) refers to dl_timer.o(.text.DL_Timer_getFaultSourceConfig) for [Anonymous Symbol]
    dl_timer.o(.ARM.exidx.text.DL_TimerA_saveConfiguration) refers to dl_timer.o(.text.DL_TimerA_saveConfiguration) for [Anonymous Symbol]
    dl_timer.o(.ARM.exidx.text.DL_TimerA_restoreConfiguration) refers to dl_timer.o(.text.DL_TimerA_restoreConfiguration) for [Anonymous Symbol]
    dl_timer.o(.text.DL_Timer_configQEIHallInputMode) refers to dl_timer.o(.text.DL_Timer_setCCPDirection) for DL_Timer_setCCPDirection
    dl_timer.o(.ARM.exidx.text.DL_Timer_configQEIHallInputMode) refers to dl_timer.o(.text.DL_Timer_configQEIHallInputMode) for [Anonymous Symbol]
    dl_uart.o(.text.DL_UART_init) refers to dl_uart.o(.text.DL_UART_disable) for DL_UART_disable
    dl_uart.o(.text.DL_UART_init) refers to dl_uart.o(.text.DL_Common_updateReg) for DL_Common_updateReg
    dl_uart.o(.ARM.exidx.text.DL_UART_init) refers to dl_uart.o(.text.DL_UART_init) for [Anonymous Symbol]
    dl_uart.o(.ARM.exidx.text.DL_UART_disable) refers to dl_uart.o(.text.DL_UART_disable) for [Anonymous Symbol]
    dl_uart.o(.ARM.exidx.text.DL_Common_updateReg) refers to dl_uart.o(.text.DL_Common_updateReg) for [Anonymous Symbol]
    dl_uart.o(.ARM.exidx.text.DL_UART_setClockConfig) refers to dl_uart.o(.text.DL_UART_setClockConfig) for [Anonymous Symbol]
    dl_uart.o(.ARM.exidx.text.DL_UART_getClockConfig) refers to dl_uart.o(.text.DL_UART_getClockConfig) for [Anonymous Symbol]
    dl_uart.o(.text.DL_UART_configBaudRate) refers to dl_uart.o(.text.DL_UART_setOversampling) for DL_UART_setOversampling
    dl_uart.o(.text.DL_UART_configBaudRate) refers to aeabi_sdivfast.o(.text_divfast) for __aeabi_uidiv
    dl_uart.o(.text.DL_UART_configBaudRate) refers to dl_uart.o(.text.DL_UART_setBaudRateDivisor) for DL_UART_setBaudRateDivisor
    dl_uart.o(.ARM.exidx.text.DL_UART_configBaudRate) refers to dl_uart.o(.text.DL_UART_configBaudRate) for [Anonymous Symbol]
    dl_uart.o(.text.DL_UART_setOversampling) refers to dl_uart.o(.text.DL_Common_updateReg) for DL_Common_updateReg
    dl_uart.o(.ARM.exidx.text.DL_UART_setOversampling) refers to dl_uart.o(.text.DL_UART_setOversampling) for [Anonymous Symbol]
    dl_uart.o(.text.DL_UART_setBaudRateDivisor) refers to dl_uart.o(.text.DL_Common_updateReg) for DL_Common_updateReg
    dl_uart.o(.ARM.exidx.text.DL_UART_setBaudRateDivisor) refers to dl_uart.o(.text.DL_UART_setBaudRateDivisor) for [Anonymous Symbol]
    dl_uart.o(.text.DL_UART_configIrDAMode) refers to dl_uart.o(.text.DL_Common_updateReg) for DL_Common_updateReg
    dl_uart.o(.text.DL_UART_configIrDAMode) refers to dl_uart.o(.text.DL_UART_setIrDAPulseLength) for DL_UART_setIrDAPulseLength
    dl_uart.o(.ARM.exidx.text.DL_UART_configIrDAMode) refers to dl_uart.o(.text.DL_UART_configIrDAMode) for [Anonymous Symbol]
    dl_uart.o(.text.DL_UART_setIrDAPulseLength) refers to dl_uart.o(.text.DL_Common_updateReg) for DL_Common_updateReg
    dl_uart.o(.ARM.exidx.text.DL_UART_setIrDAPulseLength) refers to dl_uart.o(.text.DL_UART_setIrDAPulseLength) for [Anonymous Symbol]
    dl_uart.o(.text.DL_UART_receiveDataBlocking) refers to dl_uart.o(.text.DL_UART_isRXFIFOEmpty) for DL_UART_isRXFIFOEmpty
    dl_uart.o(.text.DL_UART_receiveDataBlocking) refers to dl_uart.o(.text.DL_UART_receiveData) for DL_UART_receiveData
    dl_uart.o(.ARM.exidx.text.DL_UART_receiveDataBlocking) refers to dl_uart.o(.text.DL_UART_receiveDataBlocking) for [Anonymous Symbol]
    dl_uart.o(.ARM.exidx.text.DL_UART_isRXFIFOEmpty) refers to dl_uart.o(.text.DL_UART_isRXFIFOEmpty) for [Anonymous Symbol]
    dl_uart.o(.ARM.exidx.text.DL_UART_receiveData) refers to dl_uart.o(.text.DL_UART_receiveData) for [Anonymous Symbol]
    dl_uart.o(.text.DL_UART_transmitDataBlocking) refers to dl_uart.o(.text.DL_UART_isTXFIFOFull) for DL_UART_isTXFIFOFull
    dl_uart.o(.text.DL_UART_transmitDataBlocking) refers to dl_uart.o(.text.DL_UART_transmitData) for DL_UART_transmitData
    dl_uart.o(.ARM.exidx.text.DL_UART_transmitDataBlocking) refers to dl_uart.o(.text.DL_UART_transmitDataBlocking) for [Anonymous Symbol]
    dl_uart.o(.ARM.exidx.text.DL_UART_isTXFIFOFull) refers to dl_uart.o(.text.DL_UART_isTXFIFOFull) for [Anonymous Symbol]
    dl_uart.o(.ARM.exidx.text.DL_UART_transmitData) refers to dl_uart.o(.text.DL_UART_transmitData) for [Anonymous Symbol]
    dl_uart.o(.text.DL_UART_receiveDataCheck) refers to dl_uart.o(.text.DL_UART_isRXFIFOEmpty) for DL_UART_isRXFIFOEmpty
    dl_uart.o(.text.DL_UART_receiveDataCheck) refers to dl_uart.o(.text.DL_UART_receiveData) for DL_UART_receiveData
    dl_uart.o(.ARM.exidx.text.DL_UART_receiveDataCheck) refers to dl_uart.o(.text.DL_UART_receiveDataCheck) for [Anonymous Symbol]
    dl_uart.o(.text.DL_UART_transmitDataCheck) refers to dl_uart.o(.text.DL_UART_isTXFIFOFull) for DL_UART_isTXFIFOFull
    dl_uart.o(.text.DL_UART_transmitDataCheck) refers to dl_uart.o(.text.DL_UART_transmitData) for DL_UART_transmitData
    dl_uart.o(.ARM.exidx.text.DL_UART_transmitDataCheck) refers to dl_uart.o(.text.DL_UART_transmitDataCheck) for [Anonymous Symbol]
    dl_uart.o(.text.DL_UART_drainRXFIFO) refers to dl_uart.o(.text.DL_UART_isRXFIFOEmpty) for DL_UART_isRXFIFOEmpty
    dl_uart.o(.text.DL_UART_drainRXFIFO) refers to dl_uart.o(.text.DL_UART_receiveData) for DL_UART_receiveData
    dl_uart.o(.ARM.exidx.text.DL_UART_drainRXFIFO) refers to dl_uart.o(.text.DL_UART_drainRXFIFO) for [Anonymous Symbol]
    dl_uart.o(.text.DL_UART_fillTXFIFO) refers to dl_uart.o(.text.DL_UART_isTXFIFOFull) for DL_UART_isTXFIFOFull
    dl_uart.o(.text.DL_UART_fillTXFIFO) refers to dl_uart.o(.text.DL_UART_transmitData) for DL_UART_transmitData
    dl_uart.o(.ARM.exidx.text.DL_UART_fillTXFIFO) refers to dl_uart.o(.text.DL_UART_fillTXFIFO) for [Anonymous Symbol]
    dl_uart.o(.ARM.exidx.text.DL_UART_Main_saveConfiguration) refers to dl_uart.o(.text.DL_UART_Main_saveConfiguration) for [Anonymous Symbol]
    dl_uart.o(.text.DL_UART_Main_restoreConfiguration) refers to dl_uart.o(.text.DL_UART_enable) for DL_UART_enable
    dl_uart.o(.ARM.exidx.text.DL_UART_Main_restoreConfiguration) refers to dl_uart.o(.text.DL_UART_Main_restoreConfiguration) for [Anonymous Symbol]
    dl_uart.o(.ARM.exidx.text.DL_UART_enable) refers to dl_uart.o(.text.DL_UART_enable) for [Anonymous Symbol]
    dl_uart.o(.ARM.exidx.text.DL_UART_Extend_saveConfiguration) refers to dl_uart.o(.text.DL_UART_Extend_saveConfiguration) for [Anonymous Symbol]
    dl_uart.o(.text.DL_UART_Extend_restoreConfiguration) refers to dl_uart.o(.text.DL_UART_enable) for DL_UART_enable
    dl_uart.o(.ARM.exidx.text.DL_UART_Extend_restoreConfiguration) refers to dl_uart.o(.text.DL_UART_Extend_restoreConfiguration) for [Anonymous Symbol]
    malloc.o(.text) refers (Special) to hguard.o(.text) for __heap$guard
    malloc.o(.text) refers (Special) to init_alloc.o(.text) for _init_alloc
    malloc.o(.text) refers to rt_heap_descriptor_intlibspace.o(.text) for __rt_heap_descriptor
    free.o(.text) refers (Special) to hguard.o(.text) for __heap$guard
    free.o(.text) refers to rt_heap_descriptor_intlibspace.o(.text) for __rt_heap_descriptor
    h1_alloc.o(.text) refers (Special) to h1_init.o(.text) for __Heap_Initialize
    h1_alloc.o(.text) refers to rt_heap_descriptor_intlibspace.o(.text) for __rt_heap_descriptor
    h1_alloc.o(.text) refers to init_alloc.o(.text) for __Heap_Full
    h1_free.o(.text) refers to rt_heap_descriptor_intlibspace.o(.text) for __rt_heap_descriptor
    h1_alloc_threads.o(.text) refers (Special) to h1_init.o(.text) for __Heap_Initialize
    h1_alloc_threads.o(.text) refers to init_alloc.o(.text) for __Heap_Full
    h1_alloc_threads.o(.text) refers to rt_heap_descriptor_intlibspace.o(.text) for __rt_heap_descriptor
    h1_free_threads.o(.text) refers to rt_heap_descriptor_intlibspace.o(.text) for __rt_heap_descriptor
    heap2.o(i._FDIterate) refers to heap2.o(.conststring) for .conststring
    heap2.o(i.__Heap_ProvideMemory$realtime) refers to fdtree.o(i._FDTree_Delete) for _FDTree_Delete
    heap2.o(i.__Heap_ProvideMemory$realtime) refers to fdtree.o(i._FDTree_Insert) for _FDTree_Insert
    heap2.o(i.__Heap_Stats$realtime) refers to heap2.o(i._Heap2_StatsIterate) for _Heap2_StatsIterate
    heap2.o(i.__Heap_Stats$realtime) refers to aeabi_sdivfast.o(.text) for __aeabi_uidivmod
    heap2.o(i.__Heap_Valid$realtime) refers to heap2.o(i._FDIterate) for _FDIterate
    heap2.o(i.__Heap_Valid$realtime) refers to heap2.o(.conststring) for .conststring
    heap2.o(i.free$realtime) refers to rt_heap_descriptor_intlibspace.o(.text) for __rt_heap_descriptor
    heap2.o(i.free$realtime) refers to fdtree.o(i._FDTree_Delete) for _FDTree_Delete
    heap2.o(i.free$realtime) refers to fdtree.o(i._FDTree_Insert) for _FDTree_Insert
    heap2.o(i.malloc$realtime) refers to rt_heap_descriptor_intlibspace.o(.text) for __rt_heap_descriptor
    heap2.o(i.malloc$realtime) refers to fdtree.o(i._FDTree_FindFirst) for _FDTree_FindFirst
    heap2.o(i.malloc$realtime) refers to init_alloc.o(.text) for __Heap_Full
    heap2.o(i.malloc$realtime) refers to fdtree.o(i._FDTree_RemoveNode) for _FDTree_RemoveNode
    heap2.o(i.malloc$realtime) refers to fdtree.o(i._FDTree_Insert) for _FDTree_Insert
    heap2.o(i.posix_memalign$realtime) refers to rt_heap_descriptor_intlibspace.o(.text) for __rt_heap_descriptor
    heap2.o(i.posix_memalign$realtime) refers to fdtree.o(i._FDTree_FindFirst) for _FDTree_FindFirst
    heap2.o(i.posix_memalign$realtime) refers to init_alloc.o(.text) for __Heap_Full
    heap2.o(i.posix_memalign$realtime) refers to fdtree.o(i._FDTree_RemoveNode) for _FDTree_RemoveNode
    heap2.o(i.posix_memalign$realtime) refers to fdtree.o(i._FDTree_Insert) for _FDTree_Insert
    heap2.o(i.realloc$realtime) refers to rt_heap_descriptor_intlibspace.o(.text) for __rt_heap_descriptor
    heap2.o(i.realloc$realtime) refers to h1_free.o(.text) for free
    heap2.o(i.realloc$realtime) refers to h1_alloc.o(.text) for malloc
    heap2.o(i.realloc$realtime) refers to fdtree.o(i._FDTree_Delete) for _FDTree_Delete
    heap2.o(i.realloc$realtime) refers to fdtree.o(i._FDTree_Insert) for _FDTree_Insert
    heap2.o(i.realloc$realtime) refers to rt_memcpy.o(.emb_text) for __aeabi_memcpy4
    heap2_threads.o(i._FDIterate) refers to heap2_threads.o(.conststring) for .conststring
    heap2_threads.o(i.__Heap_ProvideMemory$realtime$concurrent) refers to fdtree.o(i._FDTree_Delete) for _FDTree_Delete
    heap2_threads.o(i.__Heap_ProvideMemory$realtime$concurrent) refers to fdtree.o(i._FDTree_Insert) for _FDTree_Insert
    heap2_threads.o(i.__Heap_Stats$realtime$concurrent) refers to heap2_threads.o(i._Heap2_StatsIterate) for _Heap2_StatsIterate
    heap2_threads.o(i.__Heap_Stats$realtime$concurrent) refers to aeabi_sdivfast.o(.text) for __aeabi_uidivmod
    heap2_threads.o(i.__Heap_Valid$realtime$concurrent) refers to heap2_threads.o(i._FDIterate) for _FDIterate
    heap2_threads.o(i.__Heap_Valid$realtime$concurrent) refers to heap2_threads.o(.conststring) for .conststring
    heap2_threads.o(i.free$realtime$concurrent) refers to rt_heap_descriptor_intlibspace.o(.text) for __rt_heap_descriptor
    heap2_threads.o(i.free$realtime$concurrent) refers to fdtree.o(i._FDTree_Delete) for _FDTree_Delete
    heap2_threads.o(i.free$realtime$concurrent) refers to fdtree.o(i._FDTree_Insert) for _FDTree_Insert
    heap2_threads.o(i.malloc$realtime$concurrent) refers to rt_heap_descriptor_intlibspace.o(.text) for __rt_heap_descriptor
    heap2_threads.o(i.malloc$realtime$concurrent) refers to fdtree.o(i._FDTree_FindFirst) for _FDTree_FindFirst
    heap2_threads.o(i.malloc$realtime$concurrent) refers to init_alloc.o(.text) for __Heap_Full
    heap2_threads.o(i.malloc$realtime$concurrent) refers to fdtree.o(i._FDTree_RemoveNode) for _FDTree_RemoveNode
    heap2_threads.o(i.malloc$realtime$concurrent) refers to fdtree.o(i._FDTree_Insert) for _FDTree_Insert
    heap2_threads.o(i.posix_memalign$realtime$concurrent) refers to rt_heap_descriptor_intlibspace.o(.text) for __rt_heap_descriptor
    heap2_threads.o(i.posix_memalign$realtime$concurrent) refers to fdtree.o(i._FDTree_FindFirst) for _FDTree_FindFirst
    heap2_threads.o(i.posix_memalign$realtime$concurrent) refers to init_alloc.o(.text) for __Heap_Full
    heap2_threads.o(i.posix_memalign$realtime$concurrent) refers to fdtree.o(i._FDTree_RemoveNode) for _FDTree_RemoveNode
    heap2_threads.o(i.posix_memalign$realtime$concurrent) refers to fdtree.o(i._FDTree_Insert) for _FDTree_Insert
    heap2_threads.o(i.realloc$realtime$concurrent) refers to rt_heap_descriptor_intlibspace.o(.text) for __rt_heap_descriptor
    heap2_threads.o(i.realloc$realtime$concurrent) refers to h1_free.o(.text) for free
    heap2_threads.o(i.realloc$realtime$concurrent) refers to h1_alloc.o(.text) for malloc
    heap2_threads.o(i.realloc$realtime$concurrent) refers to fdtree.o(i._FDTree_Delete) for _FDTree_Delete
    heap2_threads.o(i.realloc$realtime$concurrent) refers to fdtree.o(i._FDTree_Insert) for _FDTree_Insert
    heap2_threads.o(i.realloc$realtime$concurrent) refers to rt_memcpy.o(.emb_text) for __aeabi_memcpy4
    vsnprintf.o(.text) refers (Special) to _printf_a.o(.ARM.Collect$$_printf_percent$$00000006) for _printf_a
    vsnprintf.o(.text) refers (Special) to _printf_c.o(.ARM.Collect$$_printf_percent$$00000013) for _printf_c
    vsnprintf.o(.text) refers (Special) to _printf_charcount.o(.text) for _printf_charcount
    vsnprintf.o(.text) refers (Special) to _printf_d.o(.ARM.Collect$$_printf_percent$$00000009) for _printf_d
    vsnprintf.o(.text) refers (Special) to _printf_e.o(.ARM.Collect$$_printf_percent$$00000004) for _printf_e
    vsnprintf.o(.text) refers (Special) to _printf_f.o(.ARM.Collect$$_printf_percent$$00000003) for _printf_f
    vsnprintf.o(.text) refers (Special) to printf1.o(x$fpl$printf1) for _printf_fp_dec
    vsnprintf.o(.text) refers (Special) to printf2.o(x$fpl$printf2) for _printf_fp_hex
    vsnprintf.o(.text) refers (Special) to _printf_g.o(.ARM.Collect$$_printf_percent$$00000005) for _printf_g
    vsnprintf.o(.text) refers (Special) to _printf_i.o(.ARM.Collect$$_printf_percent$$00000008) for _printf_i
    vsnprintf.o(.text) refers (Special) to _printf_dec.o(.text) for _printf_int_dec
    vsnprintf.o(.text) refers (Special) to _printf_l.o(.ARM.Collect$$_printf_percent$$00000012) for _printf_l
    vsnprintf.o(.text) refers (Special) to _printf_lc.o(.ARM.Collect$$_printf_percent$$00000015) for _printf_lc
    vsnprintf.o(.text) refers (Special) to _printf_ll.o(.ARM.Collect$$_printf_percent$$00000007) for _printf_ll
    vsnprintf.o(.text) refers (Special) to _printf_lld.o(.ARM.Collect$$_printf_percent$$0000000E) for _printf_lld
    vsnprintf.o(.text) refers (Special) to _printf_lli.o(.ARM.Collect$$_printf_percent$$0000000D) for _printf_lli
    vsnprintf.o(.text) refers (Special) to _printf_llo.o(.ARM.Collect$$_printf_percent$$00000010) for _printf_llo
    vsnprintf.o(.text) refers (Special) to _printf_llu.o(.ARM.Collect$$_printf_percent$$0000000F) for _printf_llu
    vsnprintf.o(.text) refers (Special) to _printf_llx.o(.ARM.Collect$$_printf_percent$$00000011) for _printf_llx
    vsnprintf.o(.text) refers (Special) to _printf_longlong_dec.o(.text) for _printf_longlong_dec
    vsnprintf.o(.text) refers (Special) to _printf_hex_int_ll_ptr.o(.text) for _printf_longlong_hex
    vsnprintf.o(.text) refers (Special) to _printf_oct_int_ll.o(.text) for _printf_longlong_oct
    vsnprintf.o(.text) refers (Special) to _printf_ls.o(.ARM.Collect$$_printf_percent$$00000016) for _printf_ls
    vsnprintf.o(.text) refers (Special) to _printf_n.o(.ARM.Collect$$_printf_percent$$00000001) for _printf_n
    vsnprintf.o(.text) refers (Special) to _printf_o.o(.ARM.Collect$$_printf_percent$$0000000B) for _printf_o
    vsnprintf.o(.text) refers (Special) to _printf_p.o(.ARM.Collect$$_printf_percent$$00000002) for _printf_p
    vsnprintf.o(.text) refers (Special) to _printf_percent.o(.ARM.Collect$$_printf_percent$$00000000) for _printf_percent
    vsnprintf.o(.text) refers (Special) to _printf_pad.o(.text) for _printf_post_padding
    vsnprintf.o(.text) refers (Special) to _printf_s.o(.ARM.Collect$$_printf_percent$$00000014) for _printf_s
    vsnprintf.o(.text) refers (Special) to _printf_str.o(.text) for _printf_str
    vsnprintf.o(.text) refers (Special) to _printf_truncate.o(.text) for _printf_truncate_signed
    vsnprintf.o(.text) refers (Special) to _printf_u.o(.ARM.Collect$$_printf_percent$$0000000A) for _printf_u
    vsnprintf.o(.text) refers (Special) to _printf_wctomb.o(.text) for _printf_wctomb
    vsnprintf.o(.text) refers (Special) to _printf_x.o(.ARM.Collect$$_printf_percent$$0000000C) for _printf_x
    vsnprintf.o(.text) refers to _printf_char_common.o(.text) for _printf_char_common
    vsnprintf.o(.text) refers to _snputc.o(.text) for _snputc
    __2sprintf.o(.text) refers to _printf_char_common.o(.text) for _printf_char_common
    __2sprintf.o(.text) refers to _sputc.o(.text) for _sputc
    noretval__2sprintf.o(.text) refers to _printf_char_common.o(.text) for _printf_char_common
    noretval__2sprintf.o(.text) refers to _sputc.o(.text) for _sputc
    __printf.o(.text) refers to _printf_percent.o(.ARM.Collect$$_printf_percent$$00000000) for _printf_percent
    _printf_dec.o(.text) refers (Weak) to _printf_truncate.o(.text) for _printf_truncate_signed
    _printf_dec.o(.text) refers (Weak) to _printf_truncate.o(.text) for _printf_truncate_unsigned
    _printf_dec.o(.text) refers to rtudiv10.o(.text) for __rt_udiv10
    _printf_dec.o(.text) refers to _printf_intcommon.o(.text) for _printf_int_common
    __printf_flags.o(.text) refers to _printf_percent.o(.ARM.Collect$$_printf_percent$$00000000) for _printf_percent
    __printf_flags.o(.text) refers to __printf_flags.o(.constdata) for .constdata
    __printf_ss.o(.text) refers to _printf_percent.o(.ARM.Collect$$_printf_percent$$00000000) for _printf_percent
    __printf_flags_ss.o(.text) refers to _printf_percent.o(.ARM.Collect$$_printf_percent$$00000000) for _printf_percent
    __printf_flags_ss.o(.text) refers to __printf_flags_ss.o(.constdata) for .constdata
    __printf_wp.o(.text) refers to __printf_wp.o(i._is_digit) for _is_digit
    __printf_wp.o(.text) refers to _printf_percent.o(.ARM.Collect$$_printf_percent$$00000000) for _printf_percent
    __printf_flags_wp.o(.text) refers to __printf_wp.o(i._is_digit) for _is_digit
    __printf_flags_wp.o(.text) refers to _printf_percent.o(.ARM.Collect$$_printf_percent$$00000000) for _printf_percent
    __printf_flags_wp.o(.text) refers to __printf_flags_wp.o(.constdata) for .constdata
    __printf_ss_wp.o(.text) refers to __printf_wp.o(i._is_digit) for _is_digit
    __printf_ss_wp.o(.text) refers to _printf_percent.o(.ARM.Collect$$_printf_percent$$00000000) for _printf_percent
    __printf_flags_ss_wp.o(.text) refers to __printf_wp.o(i._is_digit) for _is_digit
    __printf_flags_ss_wp.o(.text) refers to _printf_percent.o(.ARM.Collect$$_printf_percent$$00000000) for _printf_percent
    __printf_flags_ss_wp.o(.text) refers to __printf_flags_ss_wp.o(.constdata) for .constdata
    _printf_d.o(.ARM.Collect$$_printf_percent$$00000009) refers (Weak) to _printf_dec.o(.text) for _printf_int_dec
    _printf_percent.o(.ARM.Collect$$_printf_percent$$00000000) refers (Special) to _printf_percent_end.o(.ARM.Collect$$_printf_percent$$00000017) for _printf_percent_end
    rt_memcpy.o(.text) refers to rt_memcpy.o(.emb_text) for __aeabi_memcpy4
    aeabi_memset4.o(.text) refers to rt_memclr.o(.text) for _memset_w
    __main.o(!!!main) refers to __rtentry.o(.ARM.Collect$$rtentry$$00000000) for __rt_entry
    daddsub.o(.text) refers (Special) to usenofp.o(x$fpl$usenofp) for __I$use$fp
    dcmp.o(i._deq) refers (Special) to usenofp.o(x$fpl$usenofp) for __I$use$fp
    dcmp.o(i._deq) refers to deqf.o(x$fpl$deqf) for _dcmpeq
    dcmp.o(i._dgeq) refers (Special) to usenofp.o(x$fpl$usenofp) for __I$use$fp
    dcmp.o(i._dgeq) refers to dgef.o(x$fpl$dgeqf) for _dcmpge
    dcmp.o(i._dgr) refers (Special) to usenofp.o(x$fpl$usenofp) for __I$use$fp
    dcmp.o(i._dgr) refers to dgef.o(x$fpl$dgeqf) for _dcmpge
    dcmp.o(i._dleq) refers (Special) to usenofp.o(x$fpl$usenofp) for __I$use$fp
    dcmp.o(i._dleq) refers to dlef.o(x$fpl$dleqf) for _dcmple
    dcmp.o(i._dls) refers (Special) to usenofp.o(x$fpl$usenofp) for __I$use$fp
    dcmp.o(i._dls) refers to dlef.o(x$fpl$dleqf) for _dcmple
    dcmp.o(i._dneq) refers (Special) to usenofp.o(x$fpl$usenofp) for __I$use$fp
    dcmp.o(i._dneq) refers to deqf.o(x$fpl$deqf) for _dcmpeq
    ddiv.o(.text) refers (Special) to usenofp.o(x$fpl$usenofp) for __I$use$fp
    ddiv.o(.text) refers to ddiv.o(.constdata) for .constdata
    ddiv.o(.constdata) refers (Special) to usenofp.o(x$fpl$usenofp) for __I$use$fp
    dfixi.o(.text) refers (Special) to usenofp.o(x$fpl$usenofp) for __I$use$fp
    dflti.o(.text) refers (Special) to usenofp.o(x$fpl$usenofp) for __I$use$fp
    dmul.o(.text) refers (Special) to usenofp.o(x$fpl$usenofp) for __I$use$fp
    faddsub.o(x$fpl$fadd) refers (Special) to usenofp.o(x$fpl$usenofp) for __I$use$fp
    faddsub.o(x$fpl$fadd) refers to faddsub.o(x$fpl$fsub) for _fsub1
    faddsub.o(x$fpl$frsb) refers (Special) to usenofp.o(x$fpl$usenofp) for __I$use$fp
    faddsub.o(x$fpl$frsb) refers to faddsub.o(x$fpl$fsub) for _fsub1
    faddsub.o(x$fpl$frsb) refers to faddsub.o(x$fpl$fadd) for _fadd1
    faddsub.o(x$fpl$fsub) refers (Special) to usenofp.o(x$fpl$usenofp) for __I$use$fp
    faddsub.o(x$fpl$fsub) refers to faddsub.o(x$fpl$fadd) for _fadd1
    fcmp.o(i._feq) refers (Special) to usenofp.o(x$fpl$usenofp) for __I$use$fp
    fcmp.o(i._feq) refers to feqf.o(x$fpl$feqf) for _fcmpeq
    fcmp.o(i._fgeq) refers (Special) to usenofp.o(x$fpl$usenofp) for __I$use$fp
    fcmp.o(i._fgeq) refers to fgef.o(x$fpl$fgeqf) for _fcmpge
    fcmp.o(i._fgr) refers (Special) to usenofp.o(x$fpl$usenofp) for __I$use$fp
    fcmp.o(i._fgr) refers to fgef.o(x$fpl$fgeqf) for _fcmpge
    fcmp.o(i._fleq) refers (Special) to usenofp.o(x$fpl$usenofp) for __I$use$fp
    fcmp.o(i._fleq) refers to flef.o(x$fpl$fleqf) for _fcmple
    fcmp.o(i._fls) refers (Special) to usenofp.o(x$fpl$usenofp) for __I$use$fp
    fcmp.o(i._fls) refers to flef.o(x$fpl$fleqf) for _fcmple
    fcmp.o(i._fneq) refers (Special) to usenofp.o(x$fpl$usenofp) for __I$use$fp
    fcmp.o(i._fneq) refers to feqf.o(x$fpl$feqf) for _fcmpeq
    fdiv.o(.text) refers (Special) to usenofp.o(x$fpl$usenofp) for __I$use$fp
    fdiv.o(.text) refers to fdiv.o(.constdata) for .constdata
    fdiv.o(.constdata) refers (Special) to usenofp.o(x$fpl$usenofp) for __I$use$fp
    ffixi.o(.text) refers (Special) to usenofp.o(x$fpl$usenofp) for __I$use$fp
    ffixui.o(.text) refers (Special) to usenofp.o(x$fpl$usenofp) for __I$use$fp
    fflti.o(.text) refers (Special) to usenofp.o(x$fpl$usenofp) for __I$use$fp
    fmul.o(x$fpl$fmul) refers (Special) to usenofp.o(x$fpl$usenofp) for __I$use$fp
    __rtentry.o(.ARM.Collect$$rtentry$$00000000) refers (Special) to __rtentry2.o(.ARM.Collect$$rtentry$$0000000A) for __rt_entry_li
    __rtentry.o(.ARM.Collect$$rtentry$$00000000) refers (Special) to __rtentry2.o(.ARM.Collect$$rtentry$$0000000D) for __rt_entry_main
    __rtentry.o(.ARM.Collect$$rtentry$$00000000) refers (Special) to __rtentry2.o(.ARM.Collect$$rtentry$$0000000C) for __rt_entry_postli_1
    __rtentry.o(.ARM.Collect$$rtentry$$00000000) refers (Special) to __rtentry2.o(.ARM.Collect$$rtentry$$00000009) for __rt_entry_postsh_1
    __rtentry.o(.ARM.Collect$$rtentry$$00000000) refers (Special) to __rtentry2.o(.ARM.Collect$$rtentry$$00000002) for __rt_entry_presh_1
    __rtentry.o(.ARM.Collect$$rtentry$$00000000) refers (Special) to __rtentry4.o(.ARM.Collect$$rtentry$$00000004) for __rt_entry_sh
    aeabi_idiv0_sigfpe.o(.text) refers to rt_div0.o(.text) for __rt_div0
    rt_heap_descriptor.o(.text) refers to rt_heap_descriptor.o(.bss) for __rt_heap_descriptor_data
    rt_heap_descriptor_intlibspace.o(.text) refers to libspace.o(.bss) for __libspace_start
    init_alloc.o(.text) refers (Special) to hguard.o(.text) for __heap$guard
    init_alloc.o(.text) refers (Special) to libinit2.o(.ARM.Collect$$libinit$$00000007) for __rt_lib_init_heap_2
    init_alloc.o(.text) refers (Special) to maybetermalloc1.o(.text) for _maybe_terminate_alloc
    init_alloc.o(.text) refers to h1_extend.o(.text) for __Heap_ProvideMemory
    init_alloc.o(.text) refers to defsig_rtmem_outer.o(.text) for __rt_SIGRTMEM
    init_alloc.o(.text) refers to rt_heap_descriptor_intlibspace.o(.text) for __rt_heap_descriptor
    init_alloc.o(.text) refers to h1_init.o(.text) for __Heap_Initialize
    _printf_str.o(.text) refers (Special) to _printf_char.o(.text) for _printf_cs_common
    _printf_str.o(.text) refers (Weak) to _printf_pad.o(.text) for _printf_pre_padding
    _printf_str.o(.text) refers (Weak) to _printf_pad.o(.text) for _printf_post_padding
    _printf_intcommon.o(.text) refers (Weak) to _printf_pad.o(.text) for _printf_pre_padding
    _printf_intcommon.o(.text) refers (Weak) to _printf_pad.o(.text) for _printf_pre_padding
    _printf_intcommon.o(.text) refers (Weak) to _printf_pad.o(.text) for _printf_post_padding
    _printf_char_common.o(.text) refers to __printf_flags_ss_wp.o(.text) for __printf
    _printf_wctomb.o(.text) refers (Special) to _printf_wchar.o(.text) for _printf_lcs_common
    _printf_wctomb.o(.text) refers to _c16rtomb.o(.text) for _wcrtomb
    _printf_wctomb.o(.text) refers (Weak) to _printf_pad.o(.text) for _printf_pre_padding
    _printf_wctomb.o(.text) refers (Weak) to _printf_pad.o(.text) for _printf_post_padding
    _printf_wctomb.o(.text) refers to _printf_wctomb.o(.constdata) for .constdata
    _printf_wctomb.o(.constdata) refers (Special) to _printf_wchar.o(.text) for _printf_lcs_common
    _printf_longlong_dec.o(.text) refers to lludiv10.o(.text) for _ll_udiv10
    _printf_longlong_dec.o(.text) refers to _printf_intcommon.o(.text) for _printf_int_common
    _printf_oct_ll.o(.text) refers to _printf_intcommon.o(.text) for _printf_int_common
    _printf_oct_int.o(.text) refers (Weak) to _printf_truncate.o(.text) for _printf_truncate_unsigned
    _printf_oct_int.o(.text) refers to _printf_intcommon.o(.text) for _printf_int_common
    _printf_oct_int_ll.o(.text) refers to _printf_intcommon.o(.text) for _printf_int_common
    _printf_oct_int_ll.o(.text) refers (Weak) to _printf_truncate.o(.text) for _printf_truncate_unsigned
    _printf_hex_ll.o(.text) refers to _printf_intcommon.o(.text) for _printf_int_common
    _printf_hex_ll.o(.text) refers to _printf_hex_ll.o(.constdata) for .constdata
    _printf_hex_int.o(.text) refers (Weak) to _printf_truncate.o(.text) for _printf_truncate_unsigned
    _printf_hex_int.o(.text) refers to _printf_intcommon.o(.text) for _printf_int_common
    _printf_hex_int.o(.text) refers to _printf_hex_int.o(.constdata) for .constdata
    _printf_hex_int_ll.o(.text) refers to _printf_intcommon.o(.text) for _printf_int_common
    _printf_hex_int_ll.o(.text) refers (Weak) to _printf_truncate.o(.text) for _printf_truncate_unsigned
    _printf_hex_int_ll.o(.text) refers to _printf_hex_int_ll.o(.constdata) for .constdata
    _printf_hex_ptr.o(.text) refers to _printf_intcommon.o(.text) for _printf_int_common
    _printf_hex_ptr.o(.text) refers to _printf_hex_ptr.o(.constdata) for .constdata
    _printf_hex_int_ptr.o(.text) refers to _printf_intcommon.o(.text) for _printf_int_common
    _printf_hex_int_ptr.o(.text) refers (Weak) to _printf_truncate.o(.text) for _printf_truncate_unsigned
    _printf_hex_int_ptr.o(.text) refers to _printf_hex_int_ptr.o(.constdata) for .constdata
    _printf_hex_ll_ptr.o(.text) refers to _printf_intcommon.o(.text) for _printf_int_common
    _printf_hex_ll_ptr.o(.text) refers to _printf_hex_ll_ptr.o(.constdata) for .constdata
    _printf_hex_int_ll_ptr.o(.text) refers to _printf_intcommon.o(.text) for _printf_int_common
    _printf_hex_int_ll_ptr.o(.text) refers (Weak) to _printf_truncate.o(.text) for _printf_truncate_unsigned
    _printf_hex_int_ll_ptr.o(.text) refers to _printf_hex_int_ll_ptr.o(.constdata) for .constdata
    _printf_c.o(.ARM.Collect$$_printf_percent$$00000013) refers (Weak) to _printf_char.o(.text) for _printf_char
    _printf_s.o(.ARM.Collect$$_printf_percent$$00000014) refers (Weak) to _printf_char.o(.text) for _printf_string
    _printf_n.o(.ARM.Collect$$_printf_percent$$00000001) refers (Weak) to _printf_charcount.o(.text) for _printf_charcount
    _printf_x.o(.ARM.Collect$$_printf_percent$$0000000C) refers (Weak) to _printf_hex_int_ll_ptr.o(.text) for _printf_int_hex
    _printf_p.o(.ARM.Collect$$_printf_percent$$00000002) refers (Weak) to _printf_hex_int_ll_ptr.o(.text) for _printf_hex_ptr
    _printf_o.o(.ARM.Collect$$_printf_percent$$0000000B) refers (Weak) to _printf_oct_int_ll.o(.text) for _printf_int_oct
    _printf_i.o(.ARM.Collect$$_printf_percent$$00000008) refers (Weak) to _printf_dec.o(.text) for _printf_int_dec
    _printf_u.o(.ARM.Collect$$_printf_percent$$0000000A) refers (Weak) to _printf_dec.o(.text) for _printf_int_dec
    _printf_f.o(.ARM.Collect$$_printf_percent$$00000003) refers (Weak) to printf1.o(x$fpl$printf1) for _printf_fp_dec
    _printf_e.o(.ARM.Collect$$_printf_percent$$00000004) refers (Weak) to printf1.o(x$fpl$printf1) for _printf_fp_dec
    _printf_g.o(.ARM.Collect$$_printf_percent$$00000005) refers (Weak) to printf1.o(x$fpl$printf1) for _printf_fp_dec
    _printf_a.o(.ARM.Collect$$_printf_percent$$00000006) refers (Weak) to printf2.o(x$fpl$printf2) for _printf_fp_hex
    _printf_lli.o(.ARM.Collect$$_printf_percent$$0000000D) refers (Special) to _printf_ll.o(.ARM.Collect$$_printf_percent$$00000007) for _printf_ll
    _printf_lli.o(.ARM.Collect$$_printf_percent$$0000000D) refers (Weak) to _printf_longlong_dec.o(.text) for _printf_longlong_dec
    _printf_lld.o(.ARM.Collect$$_printf_percent$$0000000E) refers (Special) to _printf_ll.o(.ARM.Collect$$_printf_percent$$00000007) for _printf_ll
    _printf_lld.o(.ARM.Collect$$_printf_percent$$0000000E) refers (Weak) to _printf_longlong_dec.o(.text) for _printf_longlong_dec
    _printf_llu.o(.ARM.Collect$$_printf_percent$$0000000F) refers (Special) to _printf_ll.o(.ARM.Collect$$_printf_percent$$00000007) for _printf_ll
    _printf_llu.o(.ARM.Collect$$_printf_percent$$0000000F) refers (Weak) to _printf_longlong_dec.o(.text) for _printf_longlong_dec
    _printf_lc.o(.ARM.Collect$$_printf_percent$$00000015) refers (Special) to _printf_l.o(.ARM.Collect$$_printf_percent$$00000012) for _printf_l
    _printf_lc.o(.ARM.Collect$$_printf_percent$$00000015) refers (Weak) to _printf_wchar.o(.text) for _printf_wchar
    _printf_ls.o(.ARM.Collect$$_printf_percent$$00000016) refers (Special) to _printf_l.o(.ARM.Collect$$_printf_percent$$00000012) for _printf_l
    _printf_ls.o(.ARM.Collect$$_printf_percent$$00000016) refers (Weak) to _printf_wchar.o(.text) for _printf_wstring
    _printf_llo.o(.ARM.Collect$$_printf_percent$$00000010) refers (Special) to _printf_ll.o(.ARM.Collect$$_printf_percent$$00000007) for _printf_ll
    _printf_llo.o(.ARM.Collect$$_printf_percent$$00000010) refers (Weak) to _printf_oct_int_ll.o(.text) for _printf_ll_oct
    _printf_llx.o(.ARM.Collect$$_printf_percent$$00000011) refers (Special) to _printf_ll.o(.ARM.Collect$$_printf_percent$$00000007) for _printf_ll
    _printf_llx.o(.ARM.Collect$$_printf_percent$$00000011) refers (Weak) to _printf_hex_int_ll_ptr.o(.text) for _printf_ll_hex
    _get_argv.o(.text) refers (Special) to hrguard.o(.text) for __heap_region$guard
    _get_argv.o(.text) refers to h1_alloc.o(.text) for malloc
    _get_argv.o(.text) refers to defsig_rtmem_outer.o(.text) for __rt_SIGRTMEM
    _get_argv.o(.text) refers to sys_command.o(.text) for _sys_command_string
    libinit2.o(.ARM.Collect$$libinit$$00000007) refers (Weak) to init_alloc.o(.text) for _init_alloc
    libinit2.o(.ARM.Collect$$libinit$$00000011) refers (Weak) to rt_locale_intlibspace.o(.text) for __rt_locale
    libinit2.o(.ARM.Collect$$libinit$$00000012) refers to libinit2.o(.ARM.Collect$$libinit$$00000011) for .ARM.Collect$$libinit$$00000011
    libinit2.o(.ARM.Collect$$libinit$$00000014) refers to libinit2.o(.ARM.Collect$$libinit$$00000011) for .ARM.Collect$$libinit$$00000011
    libinit2.o(.ARM.Collect$$libinit$$00000014) refers (Weak) to lc_ctype_c.o(locale$$code) for _get_lc_ctype
    libinit2.o(.ARM.Collect$$libinit$$00000016) refers to libinit2.o(.ARM.Collect$$libinit$$00000011) for .ARM.Collect$$libinit$$00000011
    libinit2.o(.ARM.Collect$$libinit$$00000018) refers to libinit2.o(.ARM.Collect$$libinit$$00000011) for .ARM.Collect$$libinit$$00000011
    libinit2.o(.ARM.Collect$$libinit$$00000018) refers (Weak) to lc_numeric_c.o(locale$$code) for _get_lc_numeric
    libinit2.o(.ARM.Collect$$libinit$$0000001A) refers to libinit2.o(.ARM.Collect$$libinit$$00000011) for .ARM.Collect$$libinit$$00000011
    libinit2.o(.ARM.Collect$$libinit$$00000028) refers to argv_veneer.o(.text) for __ARM_argv_veneer
    libinit2.o(.ARM.Collect$$libinit$$00000029) refers to argv_veneer.o(.text) for __ARM_argv_veneer
    deqf.o(x$fpl$deqf) refers (Special) to usenofp.o(x$fpl$usenofp) for __I$use$fp
    deqf.o(x$fpl$deqf) refers to dcmpin.o(.text) for __fpl_dcmp_InfNaN
    dgef.o(x$fpl$dgeqf) refers (Special) to usenofp.o(x$fpl$usenofp) for __I$use$fp
    dgef.o(x$fpl$dgeqf) refers to dcmpin.o(.text) for __fpl_dcmp_InfNaN
    dlef.o(x$fpl$dleqf) refers (Special) to usenofp.o(x$fpl$usenofp) for __I$use$fp
    dlef.o(x$fpl$dleqf) refers to dcmpin.o(.text) for __fpl_dcmp_InfNaN
    feqf.o(x$fpl$feqf) refers (Special) to usenofp.o(x$fpl$usenofp) for __I$use$fp
    feqf.o(x$fpl$feqf) refers to fcmpin.o(.text) for __fpl_fcmp_InfNaN
    fgef.o(x$fpl$fgeqf) refers (Special) to usenofp.o(x$fpl$usenofp) for __I$use$fp
    fgef.o(x$fpl$fgeqf) refers to fcmpin.o(.text) for __fpl_fcmp_InfNaN
    flef.o(x$fpl$fleqf) refers (Special) to usenofp.o(x$fpl$usenofp) for __I$use$fp
    flef.o(x$fpl$fleqf) refers to fcmpin.o(.text) for __fpl_fcmp_InfNaN
    printf1.o(x$fpl$printf1) refers to _printf_fp_dec.o(.text) for _printf_fp_dec_real
    printf2.o(x$fpl$printf2) refers to _printf_fp_hex.o(.text) for _printf_fp_hex_real
    printf2b.o(x$fpl$printf2) refers to _printf_fp_hex.o(.text) for _printf_fp_hex_real
    sys_command.o(.text) refers (Special) to use_no_semi.o(.text) for __I$use$semihosting
    sys_command.o(.text) refers (Special) to indicate_semi.o(.text) for __semihosting_library_function
    sys_command_hlt.o(.text) refers (Special) to use_no_semi.o(.text) for __I$use$semihosting
    sys_command_hlt.o(.text) refers (Special) to indicate_semi.o(.text) for __semihosting_library_function
    libspace.o(.text) refers to libspace.o(.bss) for __libspace_start
    __rtentry2.o(.ARM.Collect$$rtentry$$00000008) refers to boardinit2.o(.text) for _platform_post_stackheap_init
    __rtentry2.o(.ARM.Collect$$rtentry$$0000000A) refers to libinit.o(.ARM.Collect$$libinit$$00000000) for __rt_lib_init
    __rtentry2.o(.ARM.Collect$$rtentry$$0000000B) refers to boardinit3.o(.text) for _platform_post_lib_init
    __rtentry2.o(.ARM.Collect$$rtentry$$0000000D) refers to main.o(.text.main) for main
    __rtentry2.o(.ARM.Collect$$rtentry$$0000000D) refers to exit.o(.text) for exit
    __rtentry2.o(.ARM.exidx) refers to __rtentry2.o(.ARM.Collect$$rtentry$$00000001) for .ARM.Collect$$rtentry$$00000001
    __rtentry2.o(.ARM.exidx) refers to __rtentry2.o(.ARM.Collect$$rtentry$$00000008) for .ARM.Collect$$rtentry$$00000008
    __rtentry2.o(.ARM.exidx) refers to __rtentry2.o(.ARM.Collect$$rtentry$$0000000A) for .ARM.Collect$$rtentry$$0000000A
    __rtentry2.o(.ARM.exidx) refers to __rtentry2.o(.ARM.Collect$$rtentry$$0000000B) for .ARM.Collect$$rtentry$$0000000B
    __rtentry2.o(.ARM.exidx) refers to __rtentry2.o(.ARM.Collect$$rtentry$$0000000D) for .ARM.Collect$$rtentry$$0000000D
    __rtentry4.o(.ARM.Collect$$rtentry$$00000004) refers to sys_stackheap_outer.o(.text) for __user_setup_stackheap
    __rtentry4.o(.ARM.exidx) refers to __rtentry4.o(.ARM.Collect$$rtentry$$00000004) for .ARM.Collect$$rtentry$$00000004
    rt_div0.o(.text) refers to defsig_fpe_outer.o(.text) for __rt_SIGFPE
    maybetermalloc2.o(.text) refers (Special) to term_alloc.o(.text) for _terminate_alloc
    h1_extend.o(.text) refers to h1_free.o(.text) for free
    h1_extend_threads.o(.text) refers to h1_free_threads.o(.text) for free_internal$concurrent
    _printf_fp_dec.o(.text) refers (Special) to usenofp.o(x$fpl$usenofp) for __I$use$fp
    _printf_fp_dec.o(.text) refers (Special) to lc_numeric_c.o(locale$$code) for _get_lc_numeric
    _printf_fp_dec.o(.text) refers to bigflt0.o(.text) for _btod_etento
    _printf_fp_dec.o(.text) refers to btod.o(.text) for _btod_d2e
    _printf_fp_dec.o(.text) refers to lludiv10.o(.text) for _ll_udiv10
    _printf_fp_dec.o(.text) refers to fpclassify.o(i.__ARM_fpclassify) for __ARM_fpclassify
    _printf_fp_dec.o(.text) refers to _printf_fp_infnan.o(.text) for _printf_fp_infnan
    _printf_fp_dec.o(.text) refers to rtudiv10.o(.text) for __rt_udiv10
    _printf_fp_dec.o(.text) refers (Weak) to _printf_pad.o(.text) for _printf_pre_padding
    _printf_fp_dec.o(.text) refers (Weak) to _printf_pad.o(.text) for _printf_pre_padding
    _printf_fp_dec.o(.text) refers to rt_locale_intlibspace.o(.text) for __rt_locale
    _printf_fp_dec.o(.text) refers (Weak) to _printf_pad.o(.text) for _printf_post_padding
    _printf_fp_dec_accurate.o(.text) refers (Special) to usenofp.o(x$fpl$usenofp) for __I$use$fp
    _printf_fp_dec_accurate.o(.text) refers (Special) to lc_numeric_c.o(locale$$code) for _get_lc_numeric
    _printf_fp_dec_accurate.o(.text) refers to btod_accurate.o(.text) for _btod_main
    _printf_fp_dec_accurate.o(.text) refers to fpclassify.o(i.__ARM_fpclassify) for __ARM_fpclassify
    _printf_fp_dec_accurate.o(.text) refers to _printf_fp_infnan.o(.text) for _printf_fp_infnan
    _printf_fp_dec_accurate.o(.text) refers to rtudiv10.o(.text) for __rt_udiv10
    _printf_fp_dec_accurate.o(.text) refers (Weak) to _printf_pad.o(.text) for _printf_pre_padding
    _printf_fp_dec_accurate.o(.text) refers (Weak) to _printf_pad.o(.text) for _printf_pre_padding
    _printf_fp_dec_accurate.o(.text) refers to rt_locale_intlibspace.o(.text) for __rt_locale
    _printf_fp_dec_accurate.o(.text) refers (Weak) to _printf_pad.o(.text) for _printf_post_padding
    _printf_fp_hex.o(.text) refers (Special) to usenofp.o(x$fpl$usenofp) for __I$use$fp
    _printf_fp_hex.o(.text) refers to fpclassify.o(i.__ARM_fpclassify) for __ARM_fpclassify
    _printf_fp_hex.o(.text) refers to _printf_fp_infnan.o(.text) for _printf_fp_infnan
    _printf_fp_hex.o(.text) refers to aeabi_sdivfast.o(.text) for __aeabi_idivmod
    _printf_fp_hex.o(.text) refers (Weak) to _printf_pad.o(.text) for _printf_pre_padding
    _printf_fp_hex.o(.text) refers (Weak) to _printf_pad.o(.text) for _printf_pre_padding
    _printf_fp_hex.o(.text) refers (Weak) to _printf_pad.o(.text) for _printf_post_padding
    _printf_fp_hex.o(.text) refers to _printf_fp_hex.o(.constdata) for .constdata
    _printf_fp_hex.o(.constdata) refers (Special) to usenofp.o(x$fpl$usenofp) for __I$use$fp
    _printf_char.o(.text) refers (Weak) to _printf_str.o(.text) for _printf_str
    _printf_wchar.o(.text) refers (Weak) to _printf_wctomb.o(.text) for _printf_wctomb
    _c16rtomb.o(.text) refers to rt_ctype_table.o(.text) for __rt_ctype_table
    defsig_rtmem_outer.o(.text) refers to defsig_rtmem_inner.o(.text) for __rt_SIGRTMEM_inner
    defsig_rtmem_outer.o(.text) refers to defsig_exit.o(.text) for __sig_exit
    defsig_rtmem_formal.o(.text) refers to rt_raise.o(.text) for __rt_raise
    heapauxa.o(.text) refers to heapauxa.o(.data) for .data
    dcmpin.o(.text) refers (Special) to usenofp.o(x$fpl$usenofp) for __I$use$fp
    dcmpin.o(.text) refers to cmpret.o(.text) for __fpl_cmpreturn
    dcmpin.o(.text) refers to dnan2.o(.text) for __fpl_dcheck_NaN2
    fcmpin.o(.text) refers (Special) to usenofp.o(x$fpl$usenofp) for __I$use$fp
    fcmpin.o(.text) refers to cmpret.o(.text) for __fpl_cmpreturn
    fcmpin.o(.text) refers to fnan2.o(.text) for __fpl_fcheck_NaN2
    sys_stackheap_outer.o(.text) refers to libspace.o(.text) for __user_perproc_libspace
    sys_stackheap_outer.o(.text) refers to startup_mspm0g350x_uvision.o(.text) for __user_initial_stackheap
    sys_stackheap_outer.o(__vectab_stack_and_reset_area) refers to tempstk.o(.text) for __temporary_stack_top
    sys_stackheap_outer.o(__vectab_stack_and_reset_area) refers to __main.o(!!!main) for __main
    rt_ctype_table.o(.text) refers to rt_locale_intlibspace.o(.text) for __rt_locale
    rt_ctype_table.o(.text) refers to lc_ctype_c.o(locale$$code) for _get_lc_ctype
    rt_raise.o(.text) refers to __raise.o(.text) for __raise
    rt_raise.o(.text) refers to sys_exit.o(.text) for _sys_exit
    rt_locale.o(.text) refers to rt_locale.o(.bss) for __rt_locale_data
    rt_locale_intlibspace.o(.text) refers to libspace.o(.bss) for __libspace_start
    term_alloc.o(.text) refers (Special) to libshutdown2.o(.ARM.Collect$$libshutdown$$0000000E) for __rt_lib_shutdown_heap_2
    term_alloc.o(.text) refers to rt_heap_descriptor_intlibspace.o(.text) for __rt_heap_descriptor
    _printf_fp_infnan.o(.text) refers (Weak) to _printf_pad.o(.text) for _printf_pre_padding
    _printf_fp_infnan.o(.text) refers (Weak) to _printf_pad.o(.text) for _printf_post_padding
    bigflt0.o(.text) refers (Special) to usenofp.o(x$fpl$usenofp) for __I$use$fp
    bigflt0.o(.text) refers to aeabi_sdivfast.o(.text) for __aeabi_idivmod
    bigflt0.o(.text) refers to btod.o(.text) for _btod_emul
    bigflt0.o(.text) refers to bigflt0.o(.constdata) for .constdata
    bigflt0.o(.constdata) refers (Special) to usenofp.o(x$fpl$usenofp) for __I$use$fp
    btod.o(.text) refers to btod.o(i.__ARM_common_ll_muluu) for __ARM_common_ll_muluu
    btod_accurate.o(.text) refers to btod_accurate_common.o(.text) for _btod_common
    lc_numeric_c.o(locale$$data) refers (Special) to libinit2.o(.ARM.Collect$$libinit$$00000018) for __rt_lib_init_lc_numeric_2
    lc_numeric_c.o(locale$$code) refers (Special) to libinit2.o(.ARM.Collect$$libinit$$00000018) for __rt_lib_init_lc_numeric_2
    lc_numeric_c.o(locale$$code) refers to strcmpv6m.o(.text) for strcmp
    lc_numeric_c.o(locale$$code) refers to lc_numeric_c.o(locale$$data) for __lcnum_c_name
    exit.o(.text) refers to rtexit.o(.ARM.Collect$$rtexit$$00000000) for __rt_exit
    defsig_exit.o(.text) refers to sys_exit.o(.text) for _sys_exit
    defsig_fpe_outer.o(.text) refers to defsig_fpe_inner.o(.text) for __rt_SIGFPE_inner
    defsig_fpe_outer.o(.text) refers to defsig_exit.o(.text) for __sig_exit
    defsig_fpe_formal.o(.text) refers to rt_raise.o(.text) for __rt_raise
    defsig_rtmem_inner.o(.text) refers to defsig_general.o(.text) for __default_signal_display
    _get_argv_nomalloc.o(.text) refers (Special) to hrguard.o(.text) for __heap_region$guard
    _get_argv_nomalloc.o(.text) refers to defsig_rtmem_outer.o(.text) for __rt_SIGRTMEM
    _get_argv_nomalloc.o(.text) refers to sys_command.o(.text) for _sys_command_string
    libinit.o(.ARM.Collect$$libinit$$00000000) refers (Special) to libinit2.o(.ARM.Collect$$libinit$$00000030) for __rt_lib_init_alloca_1
    libinit.o(.ARM.Collect$$libinit$$00000000) refers (Special) to libinit2.o(.ARM.Collect$$libinit$$0000002E) for __rt_lib_init_argv_1
    libinit.o(.ARM.Collect$$libinit$$00000000) refers (Special) to libinit2.o(.ARM.Collect$$libinit$$0000001D) for __rt_lib_init_atexit_1
    libinit.o(.ARM.Collect$$libinit$$00000000) refers (Special) to libinit2.o(.ARM.Collect$$libinit$$00000023) for __rt_lib_init_clock_1
    libinit.o(.ARM.Collect$$libinit$$00000000) refers (Special) to libinit2.o(.ARM.Collect$$libinit$$00000034) for __rt_lib_init_cpp_1
    libinit.o(.ARM.Collect$$libinit$$00000000) refers (Special) to libinit2.o(.ARM.Collect$$libinit$$00000032) for __rt_lib_init_exceptions_1
    libinit.o(.ARM.Collect$$libinit$$00000000) refers (Special) to libinit2.o(.ARM.Collect$$libinit$$00000002) for __rt_lib_init_fp_1
    libinit.o(.ARM.Collect$$libinit$$00000000) refers (Special) to libinit2.o(.ARM.Collect$$libinit$$00000021) for __rt_lib_init_fp_trap_1
    libinit.o(.ARM.Collect$$libinit$$00000000) refers (Special) to libinit2.o(.ARM.Collect$$libinit$$00000025) for __rt_lib_init_getenv_1
    libinit.o(.ARM.Collect$$libinit$$00000000) refers (Special) to libinit2.o(.ARM.Collect$$libinit$$0000000C) for __rt_lib_init_heap_1
    libinit.o(.ARM.Collect$$libinit$$00000000) refers (Special) to libinit2.o(.ARM.Collect$$libinit$$00000013) for __rt_lib_init_lc_collate_1
    libinit.o(.ARM.Collect$$libinit$$00000000) refers (Special) to libinit2.o(.ARM.Collect$$libinit$$00000015) for __rt_lib_init_lc_ctype_1
    libinit.o(.ARM.Collect$$libinit$$00000000) refers (Special) to libinit2.o(.ARM.Collect$$libinit$$00000017) for __rt_lib_init_lc_monetary_1
    libinit.o(.ARM.Collect$$libinit$$00000000) refers (Special) to libinit2.o(.ARM.Collect$$libinit$$00000019) for __rt_lib_init_lc_numeric_1
    libinit.o(.ARM.Collect$$libinit$$00000000) refers (Special) to libinit2.o(.ARM.Collect$$libinit$$0000001B) for __rt_lib_init_lc_time_1
    libinit.o(.ARM.Collect$$libinit$$00000000) refers (Special) to libinit2.o(.ARM.Collect$$libinit$$00000006) for __rt_lib_init_preinit_1
    libinit.o(.ARM.Collect$$libinit$$00000000) refers (Special) to libinit2.o(.ARM.Collect$$libinit$$00000010) for __rt_lib_init_rand_1
    libinit.o(.ARM.Collect$$libinit$$00000000) refers (Special) to libinit2.o(.ARM.Collect$$libinit$$00000004) for __rt_lib_init_relocate_pie_1
    libinit.o(.ARM.Collect$$libinit$$00000000) refers (Special) to libinit2.o(.ARM.Collect$$libinit$$00000035) for __rt_lib_init_return
    libinit.o(.ARM.Collect$$libinit$$00000000) refers (Special) to libinit2.o(.ARM.Collect$$libinit$$0000001F) for __rt_lib_init_signal_1
    libinit.o(.ARM.Collect$$libinit$$00000000) refers (Special) to libinit2.o(.ARM.Collect$$libinit$$00000027) for __rt_lib_init_stdio_1
    libinit.o(.ARM.Collect$$libinit$$00000000) refers (Special) to libinit2.o(.ARM.Collect$$libinit$$0000000E) for __rt_lib_init_user_alloc_1
    cmpret.o(.text) refers (Special) to usenofp.o(x$fpl$usenofp) for __I$use$fp
    dnan2.o(.text) refers (Special) to usenofp.o(x$fpl$usenofp) for __I$use$fp
    dnan2.o(.text) refers to retnan.o(.text) for __fpl_return_NaN
    fnan2.o(.text) refers (Special) to usenofp.o(x$fpl$usenofp) for __I$use$fp
    fnan2.o(.text) refers to retnan.o(.text) for __fpl_return_NaN
    ieee_status.o(.text) refers (Special) to usenofp.o(x$fpl$usenofp) for __I$use$fp
    fpclassify.o(i.__ARM_fpclassify) refers (Special) to usenofp.o(x$fpl$usenofp) for __I$use$fp
    sys_exit.o(.text) refers (Special) to use_no_semi.o(.text) for __I$use$semihosting
    sys_exit.o(.text) refers (Special) to indicate_semi.o(.text) for __semihosting_library_function
    sys_exit_hlt.o(.text) refers (Special) to use_no_semi.o(.text) for __I$use$semihosting
    sys_exit_hlt.o(.text) refers (Special) to indicate_semi.o(.text) for __semihosting_library_function
    rtexit.o(.ARM.Collect$$rtexit$$00000000) refers (Special) to rtexit2.o(.ARM.Collect$$rtexit$$00000004) for __rt_exit_exit
    rtexit.o(.ARM.Collect$$rtexit$$00000000) refers (Special) to rtexit2.o(.ARM.Collect$$rtexit$$00000003) for __rt_exit_ls
    rtexit.o(.ARM.Collect$$rtexit$$00000000) refers (Special) to rtexit2.o(.ARM.Collect$$rtexit$$00000002) for __rt_exit_prels_1
    rtexit.o(.ARM.exidx) refers (Special) to rtexit2.o(.ARM.Collect$$rtexit$$00000004) for __rt_exit_exit
    rtexit.o(.ARM.exidx) refers (Special) to rtexit2.o(.ARM.Collect$$rtexit$$00000003) for __rt_exit_ls
    rtexit.o(.ARM.exidx) refers (Special) to rtexit2.o(.ARM.Collect$$rtexit$$00000002) for __rt_exit_prels_1
    rtexit.o(.ARM.exidx) refers to rtexit.o(.ARM.Collect$$rtexit$$00000000) for .ARM.Collect$$rtexit$$00000000
    btod_accurate_common.o(.text) refers to aeabi_sdivfast.o(.text) for __aeabi_uidivmod
    btod_accurate_common.o(.text) refers to llushr.o(.text) for __aeabi_llsr
    lc_ctype_c.o(locale$$data) refers (Special) to libinit2.o(.ARM.Collect$$libinit$$00000014) for __rt_lib_init_lc_ctype_2
    lc_ctype_c.o(locale$$code) refers (Special) to libinit2.o(.ARM.Collect$$libinit$$00000014) for __rt_lib_init_lc_ctype_2
    lc_ctype_c.o(locale$$code) refers to strcmpv6m.o(.text) for strcmp
    lc_ctype_c.o(locale$$code) refers to lc_ctype_c.o(locale$$data) for __lcctype_c_name
    __raise.o(.text) refers to defsig.o(CL$$defsig) for __default_signal_handler
    defsig_general.o(.text) refers to sys_wrch.o(.text) for _ttywrch
    defsig_fpe_inner.o(.text) refers to defsig_general.o(.text) for __default_signal_display
    libshutdown2.o(.ARM.Collect$$libshutdown$$0000000D) refers (Weak) to term_alloc.o(.text) for _terminate_alloc
    retnan.o(.text) refers (Special) to usenofp.o(x$fpl$usenofp) for __I$use$fp
    retnan.o(.text) refers to cmpret.o(.text) for __fpl_cmpreturn
    sys_wrch.o(.text) refers (Special) to use_no_semi.o(.text) for __I$use$semihosting
    sys_wrch.o(.text) refers (Special) to indicate_semi.o(.text) for __semihosting_library_function
    sys_wrch_hlt.o(.text) refers (Special) to use_no_semi.o(.text) for __I$use$semihosting
    sys_wrch_hlt.o(.text) refers (Special) to indicate_semi.o(.text) for __semihosting_library_function
    rtexit2.o(.ARM.Collect$$rtexit$$00000003) refers to libshutdown.o(.ARM.Collect$$libshutdown$$00000000) for __rt_lib_shutdown
    rtexit2.o(.ARM.Collect$$rtexit$$00000004) refers to sys_exit.o(.text) for _sys_exit
    rtexit2.o(.ARM.exidx) refers to rtexit2.o(.ARM.Collect$$rtexit$$00000001) for .ARM.Collect$$rtexit$$00000001
    rtexit2.o(.ARM.exidx) refers to rtexit2.o(.ARM.Collect$$rtexit$$00000003) for .ARM.Collect$$rtexit$$00000003
    rtexit2.o(.ARM.exidx) refers to rtexit2.o(.ARM.Collect$$rtexit$$00000004) for .ARM.Collect$$rtexit$$00000004
    defsig.o(CL$$defsig) refers to defsig_fpe_inner.o(.text) for __rt_SIGFPE_inner
    defsig.o(CL$$defsig) refers to defsig_rtmem_inner.o(.text) for __rt_SIGRTMEM_inner
    defsig_abrt_inner.o(.text) refers to defsig_general.o(.text) for __default_signal_display
    defsig_rtred_inner.o(.text) refers to defsig_general.o(.text) for __default_signal_display
    defsig_stak_inner.o(.text) refers to defsig_general.o(.text) for __default_signal_display
    defsig_pvfn_inner.o(.text) refers to defsig_general.o(.text) for __default_signal_display
    defsig_cppl_inner.o(.text) refers to defsig_general.o(.text) for __default_signal_display
    defsig_segv_inner.o(.text) refers to defsig_general.o(.text) for __default_signal_display
    defsig_other.o(.text) refers to defsig_general.o(.text) for __default_signal_display
    libshutdown.o(.ARM.Collect$$libshutdown$$00000000) refers (Special) to libshutdown2.o(.ARM.Collect$$libshutdown$$00000002) for __rt_lib_shutdown_cpp_1
    libshutdown.o(.ARM.Collect$$libshutdown$$00000000) refers (Special) to libshutdown2.o(.ARM.Collect$$libshutdown$$00000007) for __rt_lib_shutdown_fp_trap_1
    libshutdown.o(.ARM.Collect$$libshutdown$$00000000) refers (Special) to libshutdown2.o(.ARM.Collect$$libshutdown$$0000000F) for __rt_lib_shutdown_heap_1
    libshutdown.o(.ARM.Collect$$libshutdown$$00000000) refers (Special) to libshutdown2.o(.ARM.Collect$$libshutdown$$00000010) for __rt_lib_shutdown_return
    libshutdown.o(.ARM.Collect$$libshutdown$$00000000) refers (Special) to libshutdown2.o(.ARM.Collect$$libshutdown$$0000000A) for __rt_lib_shutdown_signal_1
    libshutdown.o(.ARM.Collect$$libshutdown$$00000000) refers (Special) to libshutdown2.o(.ARM.Collect$$libshutdown$$00000004) for __rt_lib_shutdown_stdio_1
    libshutdown.o(.ARM.Collect$$libshutdown$$00000000) refers (Special) to libshutdown2.o(.ARM.Collect$$libshutdown$$0000000C) for __rt_lib_shutdown_user_alloc_1


==============================================================================

Removing Unused input sections from the image.

    Removing main.o(.text), (0 bytes).
    Removing main.o(.ARM.exidx.text.main), (8 bytes).
    Removing main.o(.ARM.use_no_argv), (4 bytes).
    Removing my_task.o(.text), (0 bytes).
    Removing my_task.o(.ARM.exidx.text.follow_angle_FAST), (8 bytes).
    Removing my_task.o(.ARM.exidx.text.init_task), (8 bytes).
    Removing my_task.o(.ARM.exidx.text.follow_line), (8 bytes).
    Removing my_task.o(.ARM.exidx.text.follow_angle), (8 bytes).
    Removing my_task.o(.ARM.exidx.text.turn_angle), (8 bytes).
    Removing my_task.o(.ARM.exidx.text.task1), (8 bytes).
    Removing my_task.o(.ARM.exidx.text.task2), (8 bytes).
    Removing my_task.o(.ARM.exidx.text.task3), (8 bytes).
    Removing my_task.o(.ARM.exidx.text.task4), (8 bytes).
    Removing my_task.o(.ARM.exidx.text.task5), (8 bytes).
    Removing my_task.o(.ARM.exidx.text.turn_angle_tuning), (8 bytes).
    Removing my_task.o(.rodata.Max_Follow_Angle_Count), (4 bytes).
    Removing my_task.o(.rodata.ACCELERATION_TIME), (4 bytes).
    Removing my_task.o(.bss.Follow_Line_Count), (4 bytes).
    Removing my_task.o(.rodata.Max_Follow_Line_Count), (4 bytes).
    Removing ti_msp_dl_config.o(.text), (0 bytes).
    Removing ti_msp_dl_config.o(.ARM.exidx.text.SYSCFG_DL_init), (8 bytes).
    Removing ti_msp_dl_config.o(.ARM.exidx.text.SYSCFG_DL_initPower), (8 bytes).
    Removing ti_msp_dl_config.o(.ARM.exidx.text.SYSCFG_DL_GPIO_init), (8 bytes).
    Removing ti_msp_dl_config.o(.ARM.exidx.text.SYSCFG_DL_SYSCTL_init), (8 bytes).
    Removing ti_msp_dl_config.o(.ARM.exidx.text.SYSCFG_DL_PWM_Motor_Left_init), (8 bytes).
    Removing ti_msp_dl_config.o(.ARM.exidx.text.SYSCFG_DL_PWM_Motor_Right_init), (8 bytes).
    Removing ti_msp_dl_config.o(.ARM.exidx.text.SYSCFG_DL_TIMER_0_init), (8 bytes).
    Removing ti_msp_dl_config.o(.ARM.exidx.text.SYSCFG_DL_I2C0_init), (8 bytes).
    Removing ti_msp_dl_config.o(.ARM.exidx.text.SYSCFG_DL_UART2_init), (8 bytes).
    Removing ti_msp_dl_config.o(.ARM.exidx.text.SYSCFG_DL_SYSTICK_init), (8 bytes).
    Removing ti_msp_dl_config.o(.text.SYSCFG_DL_saveConfiguration), (40 bytes).
    Removing ti_msp_dl_config.o(.ARM.exidx.text.SYSCFG_DL_saveConfiguration), (8 bytes).
    Removing ti_msp_dl_config.o(.text.SYSCFG_DL_restoreConfiguration), (48 bytes).
    Removing ti_msp_dl_config.o(.ARM.exidx.text.SYSCFG_DL_restoreConfiguration), (8 bytes).
    Removing delay.o(.text), (0 bytes).
    Removing delay.o(.ARM.exidx.text.delay_ms), (8 bytes).
    Removing delay.o(.ARM.exidx.text.SysTick_Handler), (8 bytes).
    Removing delay.o(.data.p_the_std_time), (4 bytes).
    Removing delay.o(.rodata.systick_period), (4 bytes).
    Removing exti.o(.text), (0 bytes).
    Removing exti.o(.ARM.exidx.text.EXTI_Init), (8 bytes).
    Removing exti.o(.text.bsp_PutKey), (28 bytes).
    Removing exti.o(.ARM.exidx.text.bsp_PutKey), (8 bytes).
    Removing exti.o(.ARM.exidx.text.bsp_GetKey), (8 bytes).
    Removing exti.o(.text.bsp_GetKey2), (36 bytes).
    Removing exti.o(.ARM.exidx.text.bsp_GetKey2), (8 bytes).
    Removing exti.o(.text.bsp_GetKeyState), (16 bytes).
    Removing exti.o(.ARM.exidx.text.bsp_GetKeyState), (8 bytes).
    Removing exti.o(.text.bsp_ClearKey), (12 bytes).
    Removing exti.o(.ARM.exidx.text.bsp_ClearKey), (8 bytes).
    Removing exti.o(.ARM.exidx.text.GROUP1_IRQHandler), (8 bytes).
    Removing exti.o(.rodata.s_tBtn), (12 bytes).
    Removing led.o(.text), (0 bytes).
    Removing led.o(.ARM.exidx.text.LED_ON), (8 bytes).
    Removing led.o(.ARM.exidx.text.LED_OFF), (8 bytes).
    Removing oled.o(.text), (0 bytes).
    Removing oled.o(.text.OLED_I2C_Init), (16 bytes).
    Removing oled.o(.ARM.exidx.text.OLED_I2C_Init), (8 bytes).
    Removing oled.o(.text.I2C_WriteByte), (32 bytes).
    Removing oled.o(.ARM.exidx.text.I2C_WriteByte), (8 bytes).
    Removing oled.o(.text.WriteCmd), (28 bytes).
    Removing oled.o(.ARM.exidx.text.WriteCmd), (8 bytes).
    Removing oled.o(.text.WriteData), (28 bytes).
    Removing oled.o(.ARM.exidx.text.WriteData), (8 bytes).
    Removing oled.o(.ARM.exidx.text.OLED_Init), (8 bytes).
    Removing oled.o(.text.OLED_SetCursor), (80 bytes).
    Removing oled.o(.ARM.exidx.text.OLED_SetCursor), (8 bytes).
    Removing oled.o(.ARM.exidx.text.OLED_FILL), (8 bytes).
    Removing oled.o(.ARM.exidx.text.OLED_CLS), (8 bytes).
    Removing oled.o(.text.OLED_ON), (64 bytes).
    Removing oled.o(.ARM.exidx.text.OLED_ON), (8 bytes).
    Removing oled.o(.text.OLED_OFF), (64 bytes).
    Removing oled.o(.ARM.exidx.text.OLED_OFF), (8 bytes).
    Removing oled.o(.text.OLED_ShowChar), (436 bytes).
    Removing oled.o(.ARM.exidx.text.OLED_ShowChar), (8 bytes).
    Removing oled.o(.text.OLED_ShowString), (44 bytes).
    Removing oled.o(.ARM.exidx.text.OLED_ShowString), (8 bytes).
    Removing servo.o(.text), (0 bytes).
    Removing servo.o(.text.Servo_SetAngle_0), (64 bytes).
    Removing servo.o(.ARM.exidx.text.Servo_SetAngle_0), (8 bytes).
    Removing servo.o(.text.Servo_SetAngle_1), (64 bytes).
    Removing servo.o(.ARM.exidx.text.Servo_SetAngle_1), (8 bytes).
    Removing servo.o(.text.Servo_SetAngle_2), (64 bytes).
    Removing servo.o(.ARM.exidx.text.Servo_SetAngle_2), (8 bytes).
    Removing time.o(.text), (0 bytes).
    Removing time.o(.ARM.exidx.text.TIMG0_IRQHandler), (8 bytes).
    Removing uart.o(.text), (0 bytes).
    Removing uart.o(.ARM.exidx.text.UART_NVIC_Init), (8 bytes).
    Removing uart.o(.text.App_Printf), (120 bytes).
    Removing uart.o(.ARM.exidx.text.App_Printf), (8 bytes).
    Removing uart.o(.text.Usart_SendArray), (38 bytes).
    Removing uart.o(.ARM.exidx.text.Usart_SendArray), (8 bytes).
    Removing uart.o(.ARM.exidx.text.UART2_IRQHandler), (8 bytes).
    Removing uart.o(.text.Usart_SendByte), (8 bytes).
    Removing uart.o(.ARM.exidx.text.Usart_SendByte), (8 bytes).
    Removing uart.o(.bss.App_Printf.App_Printf_Flag), (1 bytes).
    Removing uart.o(.bss.App_Printf.len), (4 bytes).
    Removing uart.o(.bss.U3_buffer), (28 bytes).
    Removing uart.o(.bss.U0_buffer), (28 bytes).
    Removing uart.o(.bss.U1_buffer), (28 bytes).
    Removing uart.o(.bss.Data_UART_0), (1 bytes).
    Removing uart.o(.bss.Data_UART_1), (1 bytes).
    Removing uart.o(.bss.Data_UART_3), (1 bytes).
    Removing oled_font.o(.text), (0 bytes).
    Removing oled_font.o(.rodata.OLED_F8x16), (1520 bytes).
    Removing oled_buffer.o(.text), (0 bytes).
    Removing oled_buffer.o(.ARM.exidx.text.ClearScreenBuffer), (8 bytes).
    Removing oled_buffer.o(.text.ReadByteBuffer), (16 bytes).
    Removing oled_buffer.o(.ARM.exidx.text.ReadByteBuffer), (8 bytes).
    Removing oled_buffer.o(.ARM.exidx.text.WriteByteBuffer), (8 bytes).
    Removing oled_buffer.o(.text.WriteMultByteBuffer), (24 bytes).
    Removing oled_buffer.o(.ARM.exidx.text.WriteMultByteBuffer), (8 bytes).
    Removing oled_buffer.o(.ARM.exidx.text.UpdateScreenDisplay), (8 bytes).
    Removing oled_draw.o(.text), (0 bytes).
    Removing oled_draw.o(.ARM.exidx.text.DrawChar), (8 bytes).
    Removing oled_draw.o(.ARM.exidx.text.DrawString), (8 bytes).
    Removing oled_draw.o(.text.int_Pow), (60 bytes).
    Removing oled_draw.o(.ARM.exidx.text.int_Pow), (8 bytes).
    Removing oled_draw.o(.text.DrawNum), (184 bytes).
    Removing oled_draw.o(.ARM.exidx.text.DrawNum), (8 bytes).
    Removing oled_draw.o(.text.DrawPicture), (94 bytes).
    Removing oled_draw.o(.ARM.exidx.text.DrawPicture), (8 bytes).
    Removing oled_draw.o(.data.F8X16), (1520 bytes).
    Removing oled_draw.o(.data.BMP1), (1024 bytes).
    Removing dev_i2c.o(.text), (0 bytes).
    Removing dev_i2c.o(.ARM.exidx.text.I2C__init__), (8 bytes).
    Removing dev_i2c.o(.ARM.exidx.text.I2C_WriteArray_With_Blocking), (8 bytes).
    Removing dev_i2c.o(.ARM.exidx.text.I2C_WriteArray2Register_With_Blocking), (8 bytes).
    Removing dev_i2c.o(.ARM.exidx.text.I2C0_IRQHandler), (8 bytes).
    Removing dev_i2c.o(.bss.I2C1_buffer), (28 bytes).
    Removing buffer.o(.text), (0 bytes).
    Removing buffer.o(.ARM.exidx.text.Iinitial_BUFF), (8 bytes).
    Removing buffer.o(.ARM.exidx.text.Write_BUFF), (8 bytes).
    Removing buffer.o(.text.Write_BUFF_P), (90 bytes).
    Removing buffer.o(.ARM.exidx.text.Write_BUFF_P), (8 bytes).
    Removing buffer.o(.text.Read_BUFF), (40 bytes).
    Removing buffer.o(.ARM.exidx.text.Read_BUFF), (8 bytes).
    Removing buffer.o(.text.BUFF_find), (130 bytes).
    Removing buffer.o(.ARM.exidx.text.BUFF_find), (8 bytes).
    Removing buffer.o(.text.BUFF_is_empty), (16 bytes).
    Removing buffer.o(.ARM.exidx.text.BUFF_is_empty), (8 bytes).
    Removing buffer.o(.ARM.exidx.text.BUFF_pop_by_Protocol), (8 bytes).
    Removing buffer.o(.text.BUFF_pop_with_check_by_Protocol), (4070 bytes).
    Removing buffer.o(.ARM.exidx.text.BUFF_pop_with_check_by_Protocol), (8 bytes).
    Removing dev_grayscale.o(.text), (0 bytes).
    Removing dev_grayscale.o(.ARM.exidx.text.read_grayscale), (8 bytes).
    Removing dev_grayscale.o(.text.read_special_state), (28 bytes).
    Removing dev_grayscale.o(.ARM.exidx.text.read_special_state), (8 bytes).
    Removing dev_grayscale.o(.rodata.Grayscale_Port), (40 bytes).
    Removing dev_grayscale.o(.rodata.Grayscale_Pin), (40 bytes).
    Removing pid.o(.text), (0 bytes).
    Removing pid.o(.ARM.exidx.text.PID_Initialize), (8 bytes).
    Removing pid.o(.ARM.exidx.text.PID_Realize), (8 bytes).
    Removing pid.o(.text.PID_Realize_angle), (180 bytes).
    Removing pid.o(.ARM.exidx.text.PID_Realize_angle), (8 bytes).
    Removing pid.o(.text.PID_Increase), (104 bytes).
    Removing pid.o(.ARM.exidx.text.PID_Increase), (8 bytes).
    Removing pid.o(.text.Limited_Out), (20 bytes).
    Removing pid.o(.ARM.exidx.text.Limited_Out), (8 bytes).
    Removing pid.o(.text.Series_PID), (2 bytes).
    Removing pid.o(.ARM.exidx.text.Series_PID), (8 bytes).
    Removing stepper.o(.text), (0 bytes).
    Removing stepper.o(.text.Stepper_Send_Instruction), (12 bytes).
    Removing stepper.o(.ARM.exidx.text.Stepper_Send_Instruction), (8 bytes).
    Removing stepper.o(.text.Stepper_Achieve_Distance), (240 bytes).
    Removing stepper.o(.ARM.exidx.text.Stepper_Achieve_Distance), (8 bytes).
    Removing stepper.o(.text.Stepper_Speed_Control), (94 bytes).
    Removing stepper.o(.ARM.exidx.text.Stepper_Speed_Control), (8 bytes).
    Removing stepper.o(.text.Stepper_synchronization), (32 bytes).
    Removing stepper.o(.ARM.exidx.text.Stepper_synchronization), (8 bytes).
    Removing stepper.o(.text.Stepper_Read_Current_Position), (164 bytes).
    Removing stepper.o(.ARM.exidx.text.Stepper_Read_Current_Position), (8 bytes).
    Removing stepper.o(.text.Stepper_stop), (62 bytes).
    Removing stepper.o(.ARM.exidx.text.Stepper_stop), (8 bytes).
    Removing stepper.o(.text.Stepper_get_current_position_from_buff), (128 bytes).
    Removing stepper.o(.ARM.exidx.text.Stepper_get_current_position_from_buff), (8 bytes).
    Removing stepper.o(.text.Stepper_unInit), (8 bytes).
    Removing stepper.o(.ARM.exidx.text.Stepper_unInit), (8 bytes).
    Removing stepper.o(.text.Stepper_Init), (116 bytes).
    Removing stepper.o(.ARM.exidx.text.Stepper_Init), (8 bytes).
    Removing dev_car.o(.text), (0 bytes).
    Removing dev_car.o(.ARM.exidx.text.DEV_CAR_Init), (8 bytes).
    Removing dev_car.o(.ARM.exidx.text.Car_Set_Direction), (8 bytes).
    Removing dev_car.o(.ARM.exidx.text.DEV_CAR_Set_Speed), (8 bytes).
    Removing ui_.o(.text), (0 bytes).
    Removing ui_.o(.ARM.exidx.text.UI_back), (8 bytes).
    Removing ui_.o(.ARM.exidx.text.UI_updata), (8 bytes).
    Removing ui_.o(.ARM.exidx.text.UI_next), (8 bytes).
    Removing ui_.o(.ARM.exidx.text.UI_prev), (8 bytes).
    Removing ui_.o(.ARM.exidx.text.UI_enter), (8 bytes).
    Removing ui_.o(.ARM.exidx.text.task_one_init), (8 bytes).
    Removing ui_.o(.ARM.exidx.text.task_two_init), (8 bytes).
    Removing ui_.o(.ARM.exidx.text.task_three_init), (8 bytes).
    Removing ui_.o(.ARM.exidx.text.task_four_init), (8 bytes).
    Removing ui_.o(.ARM.exidx.text.task_five_init), (8 bytes).
    Removing ui_.o(.ARM.exidx.text.angle_tuning_init), (8 bytes).
    Removing ui_.o(.ARM.exidx.text.add_time), (8 bytes).
    Removing ui_.o(.ARM.exidx.text.minus_time), (8 bytes).
    Removing ui_.o(.ARM.exidx.text.test1), (8 bytes).
    Removing dl_common.o(.text), (0 bytes).
    Removing dl_common.o(.ARM.exidx.text.DL_Common_delayCycles), (8 bytes).
    Removing dl_i2c.o(.text), (0 bytes).
    Removing dl_i2c.o(.ARM.exidx.text.DL_I2C_setClockConfig), (8 bytes).
    Removing dl_i2c.o(.ARM.exidx.text.DL_Common_updateReg), (8 bytes).
    Removing dl_i2c.o(.text.DL_I2C_getClockConfig), (52 bytes).
    Removing dl_i2c.o(.ARM.exidx.text.DL_I2C_getClockConfig), (8 bytes).
    Removing dl_i2c.o(.ARM.exidx.text.DL_I2C_fillControllerTXFIFO), (8 bytes).
    Removing dl_i2c.o(.ARM.exidx.text.DL_I2C_isControllerTXFIFOFull), (8 bytes).
    Removing dl_i2c.o(.ARM.exidx.text.DL_I2C_transmitControllerData), (8 bytes).
    Removing dl_i2c.o(.ARM.exidx.text.DL_I2C_flushControllerTXFIFO), (8 bytes).
    Removing dl_i2c.o(.ARM.exidx.text.DL_I2C_startFlushControllerTXFIFO), (8 bytes).
    Removing dl_i2c.o(.ARM.exidx.text.DL_I2C_isControllerTXFIFOEmpty), (8 bytes).
    Removing dl_i2c.o(.ARM.exidx.text.DL_I2C_stopFlushControllerTXFIFO), (8 bytes).
    Removing dl_i2c.o(.text.DL_I2C_flushControllerRXFIFO), (38 bytes).
    Removing dl_i2c.o(.ARM.exidx.text.DL_I2C_flushControllerRXFIFO), (8 bytes).
    Removing dl_i2c.o(.text.DL_I2C_startFlushControllerRXFIFO), (28 bytes).
    Removing dl_i2c.o(.ARM.exidx.text.DL_I2C_startFlushControllerRXFIFO), (8 bytes).
    Removing dl_i2c.o(.text.DL_I2C_isControllerRXFIFOEmpty), (28 bytes).
    Removing dl_i2c.o(.ARM.exidx.text.DL_I2C_isControllerRXFIFOEmpty), (8 bytes).
    Removing dl_i2c.o(.text.DL_I2C_stopFlushControllerRXFIFO), (28 bytes).
    Removing dl_i2c.o(.ARM.exidx.text.DL_I2C_stopFlushControllerRXFIFO), (8 bytes).
    Removing dl_i2c.o(.text.DL_I2C_fillTargetTXFIFO), (86 bytes).
    Removing dl_i2c.o(.ARM.exidx.text.DL_I2C_fillTargetTXFIFO), (8 bytes).
    Removing dl_i2c.o(.text.DL_I2C_isTargetTXFIFOFull), (28 bytes).
    Removing dl_i2c.o(.ARM.exidx.text.DL_I2C_isTargetTXFIFOFull), (8 bytes).
    Removing dl_i2c.o(.text.DL_I2C_transmitTargetData), (28 bytes).
    Removing dl_i2c.o(.ARM.exidx.text.DL_I2C_transmitTargetData), (8 bytes).
    Removing dl_i2c.o(.text.DL_I2C_flushTargetTXFIFO), (38 bytes).
    Removing dl_i2c.o(.ARM.exidx.text.DL_I2C_flushTargetTXFIFO), (8 bytes).
    Removing dl_i2c.o(.text.DL_I2C_startFlushTargetTXFIFO), (24 bytes).
    Removing dl_i2c.o(.ARM.exidx.text.DL_I2C_startFlushTargetTXFIFO), (8 bytes).
    Removing dl_i2c.o(.text.DL_I2C_isTargetTXFIFOEmpty), (36 bytes).
    Removing dl_i2c.o(.ARM.exidx.text.DL_I2C_isTargetTXFIFOEmpty), (8 bytes).
    Removing dl_i2c.o(.text.DL_I2C_stopFlushTargetTXFIFO), (24 bytes).
    Removing dl_i2c.o(.ARM.exidx.text.DL_I2C_stopFlushTargetTXFIFO), (8 bytes).
    Removing dl_i2c.o(.text.DL_I2C_flushTargetRXFIFO), (38 bytes).
    Removing dl_i2c.o(.ARM.exidx.text.DL_I2C_flushTargetRXFIFO), (8 bytes).
    Removing dl_i2c.o(.text.DL_I2C_startFlushTargetRXFIFO), (28 bytes).
    Removing dl_i2c.o(.ARM.exidx.text.DL_I2C_startFlushTargetRXFIFO), (8 bytes).
    Removing dl_i2c.o(.text.DL_I2C_isTargetRXFIFOEmpty), (28 bytes).
    Removing dl_i2c.o(.ARM.exidx.text.DL_I2C_isTargetRXFIFOEmpty), (8 bytes).
    Removing dl_i2c.o(.text.DL_I2C_stopFlushTargetRXFIFO), (28 bytes).
    Removing dl_i2c.o(.ARM.exidx.text.DL_I2C_stopFlushTargetRXFIFO), (8 bytes).
    Removing dl_i2c.o(.text.DL_I2C_transmitTargetDataBlocking), (46 bytes).
    Removing dl_i2c.o(.ARM.exidx.text.DL_I2C_transmitTargetDataBlocking), (8 bytes).
    Removing dl_i2c.o(.text.DL_I2C_getTargetStatus), (20 bytes).
    Removing dl_i2c.o(.ARM.exidx.text.DL_I2C_getTargetStatus), (8 bytes).
    Removing dl_i2c.o(.text.DL_I2C_transmitTargetDataCheck), (64 bytes).
    Removing dl_i2c.o(.ARM.exidx.text.DL_I2C_transmitTargetDataCheck), (8 bytes).
    Removing dl_i2c.o(.text.DL_I2C_receiveTargetDataBlocking), (34 bytes).
    Removing dl_i2c.o(.ARM.exidx.text.DL_I2C_receiveTargetDataBlocking), (8 bytes).
    Removing dl_i2c.o(.text.DL_I2C_receiveTargetData), (18 bytes).
    Removing dl_i2c.o(.ARM.exidx.text.DL_I2C_receiveTargetData), (8 bytes).
    Removing dl_i2c.o(.text.DL_I2C_receiveTargetDataCheck), (58 bytes).
    Removing dl_i2c.o(.ARM.exidx.text.DL_I2C_receiveTargetDataCheck), (8 bytes).
    Removing dl_timer.o(.text), (0 bytes).
    Removing dl_timer.o(.ARM.exidx.text.DL_Timer_setClockConfig), (8 bytes).
    Removing dl_timer.o(.text.DL_Timer_getClockConfig), (52 bytes).
    Removing dl_timer.o(.ARM.exidx.text.DL_Timer_getClockConfig), (8 bytes).
    Removing dl_timer.o(.ARM.exidx.text.DL_Timer_initTimerMode), (8 bytes).
    Removing dl_timer.o(.ARM.exidx.text.DL_Timer_setLoadValue), (8 bytes).
    Removing dl_timer.o(.ARM.exidx.text.DL_Timer_setCounterValueAfterEnable), (8 bytes).
    Removing dl_timer.o(.ARM.exidx.text.DL_Timer_setCaptureCompareValue), (8 bytes).
    Removing dl_timer.o(.ARM.exidx.text.DL_Timer_setCaptureCompareCtl), (8 bytes).
    Removing dl_timer.o(.text.DL_Timer_initCaptureMode), (316 bytes).
    Removing dl_timer.o(.ARM.exidx.text.DL_Timer_initCaptureMode), (8 bytes).
    Removing dl_timer.o(.text.DL_Timer_getInChanConfig), (138 bytes).
    Removing dl_timer.o(.ARM.exidx.text.DL_Timer_getInChanConfig), (8 bytes).
    Removing dl_timer.o(.ARM.exidx.text.DL_Timer_setCaptureCompareInput), (8 bytes).
    Removing dl_timer.o(.text.DL_Timer_setCCPDirection), (20 bytes).
    Removing dl_timer.o(.ARM.exidx.text.DL_Timer_setCCPDirection), (8 bytes).
    Removing dl_timer.o(.ARM.exidx.text.DL_Common_updateReg), (8 bytes).
    Removing dl_timer.o(.text.DL_Timer_initCaptureTriggerMode), (188 bytes).
    Removing dl_timer.o(.ARM.exidx.text.DL_Timer_initCaptureTriggerMode), (8 bytes).
    Removing dl_timer.o(.text.DL_Timer_initCaptureCombinedMode), (180 bytes).
    Removing dl_timer.o(.ARM.exidx.text.DL_Timer_initCaptureCombinedMode), (8 bytes).
    Removing dl_timer.o(.text.DL_Timer_getInChanPairConfig), (70 bytes).
    Removing dl_timer.o(.ARM.exidx.text.DL_Timer_getInChanPairConfig), (8 bytes).
    Removing dl_timer.o(.text.DL_Timer_initCompareMode), (184 bytes).
    Removing dl_timer.o(.ARM.exidx.text.DL_Timer_initCompareMode), (8 bytes).
    Removing dl_timer.o(.text.DL_Timer_initCompareTriggerMode), (156 bytes).
    Removing dl_timer.o(.ARM.exidx.text.DL_Timer_initCompareTriggerMode), (8 bytes).
    Removing dl_timer.o(.ARM.exidx.text.DL_Timer_initPWMMode), (8 bytes).
    Removing dl_timer.o(.ARM.exidx.text.DL_Timer_setCaptureCompareAction), (8 bytes).
    Removing dl_timer.o(.ARM.exidx.text.DL_Timer_setCaptureCompareOutCtl), (8 bytes).
    Removing dl_timer.o(.text.DL_Timer_getCaptureCompareValue), (44 bytes).
    Removing dl_timer.o(.ARM.exidx.text.DL_Timer_getCaptureCompareValue), (8 bytes).
    Removing dl_timer.o(.text.DL_Timer_getCaptureCompareCtl), (48 bytes).
    Removing dl_timer.o(.ARM.exidx.text.DL_Timer_getCaptureCompareCtl), (8 bytes).
    Removing dl_timer.o(.text.DL_Timer_setSecondCompSrcDn), (56 bytes).
    Removing dl_timer.o(.ARM.exidx.text.DL_Timer_setSecondCompSrcDn), (8 bytes).
    Removing dl_timer.o(.text.DL_Timer_getSecondCompSrcDn), (52 bytes).
    Removing dl_timer.o(.ARM.exidx.text.DL_Timer_getSecondCompSrcDn), (8 bytes).
    Removing dl_timer.o(.text.DL_Timer_setSecondCompSrcUp), (56 bytes).
    Removing dl_timer.o(.ARM.exidx.text.DL_Timer_setSecondCompSrcUp), (8 bytes).
    Removing dl_timer.o(.text.DL_Timer_getSecondCompSrcUp), (52 bytes).
    Removing dl_timer.o(.ARM.exidx.text.DL_Timer_getSecondCompSrcUp), (8 bytes).
    Removing dl_timer.o(.text.DL_Timer_setSecondCompActionDn), (68 bytes).
    Removing dl_timer.o(.ARM.exidx.text.DL_Timer_setSecondCompActionDn), (8 bytes).
    Removing dl_timer.o(.text.DL_Timer_getSecondCompActionDn), (52 bytes).
    Removing dl_timer.o(.ARM.exidx.text.DL_Timer_getSecondCompActionDn), (8 bytes).
    Removing dl_timer.o(.text.DL_Timer_setSecondCompActionUp), (56 bytes).
    Removing dl_timer.o(.ARM.exidx.text.DL_Timer_setSecondCompActionUp), (8 bytes).
    Removing dl_timer.o(.text.DL_Timer_getSecondCompActionUp), (52 bytes).
    Removing dl_timer.o(.ARM.exidx.text.DL_Timer_getSecondCompActionUp), (8 bytes).
    Removing dl_timer.o(.text.DL_Timer_enableSuppressionOfCompEvent), (48 bytes).
    Removing dl_timer.o(.ARM.exidx.text.DL_Timer_enableSuppressionOfCompEvent), (8 bytes).
    Removing dl_timer.o(.text.DL_Timer_disableSuppressionOfCompEvent), (48 bytes).
    Removing dl_timer.o(.ARM.exidx.text.DL_Timer_disableSuppressionOfCompEvent), (8 bytes).
    Removing dl_timer.o(.ARM.exidx.text.DL_Timer_setCaptCompUpdateMethod), (8 bytes).
    Removing dl_timer.o(.text.DL_Timer_getCaptCompUpdateMethod), (52 bytes).
    Removing dl_timer.o(.ARM.exidx.text.DL_Timer_getCaptCompUpdateMethod), (8 bytes).
    Removing dl_timer.o(.text.DL_Timer_getCaptureCompareOutCtl), (40 bytes).
    Removing dl_timer.o(.ARM.exidx.text.DL_Timer_getCaptureCompareOutCtl), (8 bytes).
    Removing dl_timer.o(.text.DL_Timer_getCaptureCompareAction), (48 bytes).
    Removing dl_timer.o(.ARM.exidx.text.DL_Timer_getCaptureCompareAction), (8 bytes).
    Removing dl_timer.o(.text.DL_Timer_overrideCCPOut), (60 bytes).
    Removing dl_timer.o(.ARM.exidx.text.DL_Timer_overrideCCPOut), (8 bytes).
    Removing dl_timer.o(.text.DL_Timer_getCaptureCompareInput), (42 bytes).
    Removing dl_timer.o(.ARM.exidx.text.DL_Timer_getCaptureCompareInput), (8 bytes).
    Removing dl_timer.o(.text.DL_Timer_setCaptureCompareInputFilter), (58 bytes).
    Removing dl_timer.o(.ARM.exidx.text.DL_Timer_setCaptureCompareInputFilter), (8 bytes).
    Removing dl_timer.o(.text.DL_Timer_getCaptureCompareInputFilter), (44 bytes).
    Removing dl_timer.o(.ARM.exidx.text.DL_Timer_getCaptureCompareInputFilter), (8 bytes).
    Removing dl_timer.o(.text.DL_Timer_enableCaptureCompareInputFilter), (46 bytes).
    Removing dl_timer.o(.ARM.exidx.text.DL_Timer_enableCaptureCompareInputFilter), (8 bytes).
    Removing dl_timer.o(.text.DL_Timer_disableCaptureCompareInputFilter), (46 bytes).
    Removing dl_timer.o(.ARM.exidx.text.DL_Timer_disableCaptureCompareInputFilter), (8 bytes).
    Removing dl_timer.o(.text.DL_Timer_isCaptureCompareInputFilterEnabled), (46 bytes).
    Removing dl_timer.o(.ARM.exidx.text.DL_Timer_isCaptureCompareInputFilterEnabled), (8 bytes).
    Removing dl_timer.o(.text.DL_Timer_saveConfiguration), (444 bytes).
    Removing dl_timer.o(.ARM.exidx.text.DL_Timer_saveConfiguration), (8 bytes).
    Removing dl_timer.o(.text.DL_Timer_restoreConfiguration), (484 bytes).
    Removing dl_timer.o(.ARM.exidx.text.DL_Timer_restoreConfiguration), (8 bytes).
    Removing dl_timer.o(.ARM.exidx.text.DL_TimerA_initPWMMode), (8 bytes).
    Removing dl_timer.o(.text.DL_Timer_setFaultSourceConfig), (52 bytes).
    Removing dl_timer.o(.ARM.exidx.text.DL_Timer_setFaultSourceConfig), (8 bytes).
    Removing dl_timer.o(.text.DL_Timer_getFaultSourceConfig), (48 bytes).
    Removing dl_timer.o(.ARM.exidx.text.DL_Timer_getFaultSourceConfig), (8 bytes).
    Removing dl_timer.o(.text.DL_TimerA_saveConfiguration), (676 bytes).
    Removing dl_timer.o(.ARM.exidx.text.DL_TimerA_saveConfiguration), (8 bytes).
    Removing dl_timer.o(.text.DL_TimerA_restoreConfiguration), (700 bytes).
    Removing dl_timer.o(.ARM.exidx.text.DL_TimerA_restoreConfiguration), (8 bytes).
    Removing dl_timer.o(.text.DL_Timer_configQEIHallInputMode), (64 bytes).
    Removing dl_timer.o(.ARM.exidx.text.DL_Timer_configQEIHallInputMode), (8 bytes).
    Removing dl_uart.o(.text), (0 bytes).
    Removing dl_uart.o(.ARM.exidx.text.DL_UART_init), (8 bytes).
    Removing dl_uart.o(.ARM.exidx.text.DL_UART_disable), (8 bytes).
    Removing dl_uart.o(.ARM.exidx.text.DL_Common_updateReg), (8 bytes).
    Removing dl_uart.o(.ARM.exidx.text.DL_UART_setClockConfig), (8 bytes).
    Removing dl_uart.o(.text.DL_UART_getClockConfig), (36 bytes).
    Removing dl_uart.o(.ARM.exidx.text.DL_UART_getClockConfig), (8 bytes).
    Removing dl_uart.o(.text.DL_UART_configBaudRate), (150 bytes).
    Removing dl_uart.o(.ARM.exidx.text.DL_UART_configBaudRate), (8 bytes).
    Removing dl_uart.o(.text.DL_UART_setOversampling), (30 bytes).
    Removing dl_uart.o(.ARM.exidx.text.DL_UART_setOversampling), (8 bytes).
    Removing dl_uart.o(.text.DL_UART_setBaudRateDivisor), (88 bytes).
    Removing dl_uart.o(.ARM.exidx.text.DL_UART_setBaudRateDivisor), (8 bytes).
    Removing dl_uart.o(.text.DL_UART_configIrDAMode), (76 bytes).
    Removing dl_uart.o(.ARM.exidx.text.DL_UART_configIrDAMode), (8 bytes).
    Removing dl_uart.o(.text.DL_UART_setIrDAPulseLength), (76 bytes).
    Removing dl_uart.o(.ARM.exidx.text.DL_UART_setIrDAPulseLength), (8 bytes).
    Removing dl_uart.o(.text.DL_UART_receiveDataBlocking), (32 bytes).
    Removing dl_uart.o(.ARM.exidx.text.DL_UART_receiveDataBlocking), (8 bytes).
    Removing dl_uart.o(.text.DL_UART_isRXFIFOEmpty), (24 bytes).
    Removing dl_uart.o(.ARM.exidx.text.DL_UART_isRXFIFOEmpty), (8 bytes).
    Removing dl_uart.o(.text.DL_UART_receiveData), (20 bytes).
    Removing dl_uart.o(.ARM.exidx.text.DL_UART_receiveData), (8 bytes).
    Removing dl_uart.o(.text.DL_UART_transmitDataBlocking), (42 bytes).
    Removing dl_uart.o(.ARM.exidx.text.DL_UART_transmitDataBlocking), (8 bytes).
    Removing dl_uart.o(.text.DL_UART_isTXFIFOFull), (24 bytes).
    Removing dl_uart.o(.ARM.exidx.text.DL_UART_isTXFIFOFull), (8 bytes).
    Removing dl_uart.o(.text.DL_UART_transmitData), (24 bytes).
    Removing dl_uart.o(.ARM.exidx.text.DL_UART_transmitData), (8 bytes).
    Removing dl_uart.o(.text.DL_UART_receiveDataCheck), (58 bytes).
    Removing dl_uart.o(.ARM.exidx.text.DL_UART_receiveDataCheck), (8 bytes).
    Removing dl_uart.o(.text.DL_UART_transmitDataCheck), (64 bytes).
    Removing dl_uart.o(.ARM.exidx.text.DL_UART_transmitDataCheck), (8 bytes).
    Removing dl_uart.o(.text.DL_UART_drainRXFIFO), (70 bytes).
    Removing dl_uart.o(.ARM.exidx.text.DL_UART_drainRXFIFO), (8 bytes).
    Removing dl_uart.o(.text.DL_UART_fillTXFIFO), (70 bytes).
    Removing dl_uart.o(.ARM.exidx.text.DL_UART_fillTXFIFO), (8 bytes).
    Removing dl_uart.o(.text.DL_UART_Main_saveConfiguration), (200 bytes).
    Removing dl_uart.o(.ARM.exidx.text.DL_UART_Main_saveConfiguration), (8 bytes).
    Removing dl_uart.o(.text.DL_UART_Main_restoreConfiguration), (228 bytes).
    Removing dl_uart.o(.ARM.exidx.text.DL_UART_Main_restoreConfiguration), (8 bytes).
    Removing dl_uart.o(.text.DL_UART_enable), (22 bytes).
    Removing dl_uart.o(.ARM.exidx.text.DL_UART_enable), (8 bytes).
    Removing dl_uart.o(.text.DL_UART_Extend_saveConfiguration), (256 bytes).
    Removing dl_uart.o(.ARM.exidx.text.DL_UART_Extend_saveConfiguration), (8 bytes).
    Removing dl_uart.o(.text.DL_UART_Extend_restoreConfiguration), (276 bytes).
    Removing dl_uart.o(.ARM.exidx.text.DL_UART_Extend_restoreConfiguration), (8 bytes).

392 unused section(s) (total 20860 bytes) removed from the image.

==============================================================================

Image Symbol Table

    Local Symbols

    Symbol Name                              Value     Ov Type        Size  Object(Section)

    ../clib/../cmprslib/zerorunl.c           0x00000000   Number         0  __dczerorl.o ABSOLUTE
    ../clib/angel/boardlib.s                 0x00000000   Number         0  boardinit1.o ABSOLUTE
    ../clib/angel/boardlib.s                 0x00000000   Number         0  boardinit2.o ABSOLUTE
    ../clib/angel/boardlib.s                 0x00000000   Number         0  boardinit3.o ABSOLUTE
    ../clib/angel/boardlib.s                 0x00000000   Number         0  boardshut.o ABSOLUTE
    ../clib/angel/handlers.s                 0x00000000   Number         0  __scatter_zi.o ABSOLUTE
    ../clib/angel/kernel.s                   0x00000000   Number         0  __rtentry.o ABSOLUTE
    ../clib/angel/kernel.s                   0x00000000   Number         0  __rtentry2.o ABSOLUTE
    ../clib/angel/kernel.s                   0x00000000   Number         0  __rtentry4.o ABSOLUTE
    ../clib/angel/kernel.s                   0x00000000   Number         0  rtexit.o ABSOLUTE
    ../clib/angel/kernel.s                   0x00000000   Number         0  rtexit2.o ABSOLUTE
    ../clib/angel/rt.s                       0x00000000   Number         0  aeabi_idiv0.o ABSOLUTE
    ../clib/angel/rt.s                       0x00000000   Number         0  aeabi_idiv0_sigfpe.o ABSOLUTE
    ../clib/angel/rt.s                       0x00000000   Number         0  rt_heap_descriptor.o ABSOLUTE
    ../clib/angel/rt.s                       0x00000000   Number         0  rt_heap_descriptor_intlibspace.o ABSOLUTE
    ../clib/angel/rt.s                       0x00000000   Number         0  rt_div0.o ABSOLUTE
    ../clib/angel/rt.s                       0x00000000   Number         0  rt_ctype_table.o ABSOLUTE
    ../clib/angel/rt.s                       0x00000000   Number         0  rt_raise.o ABSOLUTE
    ../clib/angel/rt.s                       0x00000000   Number         0  rt_locale.o ABSOLUTE
    ../clib/angel/rt.s                       0x00000000   Number         0  rt_locale_intlibspace.o ABSOLUTE
    ../clib/angel/scatterp.s                 0x00000000   Number         0  __scatter.o ABSOLUTE
    ../clib/angel/startup.s                  0x00000000   Number         0  __main.o ABSOLUTE
    ../clib/angel/sys.s                      0x00000000   Number         0  mutex_dummy.o ABSOLUTE
    ../clib/angel/sys.s                      0x00000000   Number         0  libspace.o ABSOLUTE
    ../clib/angel/sys.s                      0x00000000   Number         0  use_no_semi.o ABSOLUTE
    ../clib/angel/sys.s                      0x00000000   Number         0  indicate_semi.o ABSOLUTE
    ../clib/angel/sys.s                      0x00000000   Number         0  sys_stackheap_outer.o ABSOLUTE
    ../clib/angel/sys.s                      0x00000000   Number         0  tempstk.o ABSOLUTE
    ../clib/angel/sysapp.c                   0x00000000   Number         0  sys_command.o ABSOLUTE
    ../clib/angel/sysapp.c                   0x00000000   Number         0  sys_command_hlt.o ABSOLUTE
    ../clib/angel/sysapp.c                   0x00000000   Number         0  sys_exit.o ABSOLUTE
    ../clib/angel/sysapp.c                   0x00000000   Number         0  sys_exit_hlt.o ABSOLUTE
    ../clib/angel/sysapp.c                   0x00000000   Number         0  sys_wrch.o ABSOLUTE
    ../clib/angel/sysapp.c                   0x00000000   Number         0  sys_wrch_hlt.o ABSOLUTE
    ../clib/armsys.c                         0x00000000   Number         0  _get_argv.o ABSOLUTE
    ../clib/armsys.c                         0x00000000   Number         0  argv_veneer.o ABSOLUTE
    ../clib/armsys.c                         0x00000000   Number         0  _get_argv_nomalloc.o ABSOLUTE
    ../clib/armsys.c                         0x00000000   Number         0  no_argv.o ABSOLUTE
    ../clib/bigflt.c                         0x00000000   Number         0  bigflt0.o ABSOLUTE
    ../clib/btod.c                           0x00000000   Number         0  btod.o ABSOLUTE
    ../clib/btod_accurate.c                  0x00000000   Number         0  btod_accurate.o ABSOLUTE
    ../clib/btod_accurate.c                  0x00000000   Number         0  btod_accurate_common.o ABSOLUTE
    ../clib/division.c                       0x00000000   Number         0  rtudiv10.o ABSOLUTE
    ../clib/division.c                       0x00000000   Number         0  lludiv10.o ABSOLUTE
    ../clib/division.s                       0x00000000   Number         0  aeabi_sdivfast.o ABSOLUTE
    ../clib/division.s                       0x00000000   Number         0  aeabi_sdivfast_div0.o ABSOLUTE
    ../clib/heap1.c                          0x00000000   Number         0  h1_alloc.o ABSOLUTE
    ../clib/heap1.c                          0x00000000   Number         0  h1_free.o ABSOLUTE
    ../clib/heap1.c                          0x00000000   Number         0  h1_alloc_threads.o ABSOLUTE
    ../clib/heap1.c                          0x00000000   Number         0  h1_free_threads.o ABSOLUTE
    ../clib/heap1.c                          0x00000000   Number         0  h1_init.o ABSOLUTE
    ../clib/heap1.c                          0x00000000   Number         0  h1_init_threads.o ABSOLUTE
    ../clib/heap1.c                          0x00000000   Number         0  h1_extend.o ABSOLUTE
    ../clib/heap1.c                          0x00000000   Number         0  h1_extend_threads.o ABSOLUTE
    ../clib/heap1.c                          0x00000000   Number         0  h1_final.o ABSOLUTE
    ../clib/heap1.c                          0x00000000   Number         0  h1_final_threads.o ABSOLUTE
    ../clib/heap2.c                          0x00000000   Number         0  heap2.o ABSOLUTE
    ../clib/heap2.c                          0x00000000   Number         0  heap2_threads.o ABSOLUTE
    ../clib/heap2.c                          0x00000000   Number         0  fdtree.o ABSOLUTE
    ../clib/heapalloc.c                      0x00000000   Number         0  malloc.o ABSOLUTE
    ../clib/heapalloc.c                      0x00000000   Number         0  free.o ABSOLUTE
    ../clib/heapalloc.c                      0x00000000   Number         0  hguard.o ABSOLUTE
    ../clib/heapalloc.c                      0x00000000   Number         0  init_alloc.o ABSOLUTE
    ../clib/heapalloc.c                      0x00000000   Number         0  heapstubs.o ABSOLUTE
    ../clib/heapalloc.c                      0x00000000   Number         0  hrguard.o ABSOLUTE
    ../clib/heapalloc.c                      0x00000000   Number         0  term_alloc.o ABSOLUTE
    ../clib/heapaux.c                        0x00000000   Number         0  heapauxi.o ABSOLUTE
    ../clib/heapaux.c                        0x00000000   Number         0  heapauxa.o ABSOLUTE
    ../clib/libinit.s                        0x00000000   Number         0  libinit2.o ABSOLUTE
    ../clib/libinit.s                        0x00000000   Number         0  libinit.o ABSOLUTE
    ../clib/libinit.s                        0x00000000   Number         0  libshutdown2.o ABSOLUTE
    ../clib/libinit.s                        0x00000000   Number         0  libshutdown.o ABSOLUTE
    ../clib/locale.c                         0x00000000   Number         0  _c16rtomb.o ABSOLUTE
    ../clib/locale.s                         0x00000000   Number         0  lc_numeric_c.o ABSOLUTE
    ../clib/locale.s                         0x00000000   Number         0  lc_ctype_c.o ABSOLUTE
    ../clib/longlong.c                       0x00000000   Number         0  llushr.o ABSOLUTE
    ../clib/maybe.s                          0x00000000   Number         0  maybetermalloc1.o ABSOLUTE
    ../clib/maybe.s                          0x00000000   Number         0  maybetermalloc2.o ABSOLUTE
    ../clib/memcpset.c                       0x00000000   Number         0  rt_memcpy.o ABSOLUTE
    ../clib/memcpset.c                       0x00000000   Number         0  rt_memcpy.o ABSOLUTE
    ../clib/memcpset.c                       0x00000000   Number         0  aeabi_memset4.o ABSOLUTE
    ../clib/memcpset.c                       0x00000000   Number         0  rt_memclr.o ABSOLUTE
    ../clib/memcpset.s                       0x00000000   Number         0  strcmpv6m.o ABSOLUTE
    ../clib/misc.s                           0x00000000   Number         0  printf_stubs.o ABSOLUTE
    ../clib/printf.c                         0x00000000   Number         0  vsnprintf.o ABSOLUTE
    ../clib/printf.c                         0x00000000   Number         0  __2sprintf.o ABSOLUTE
    ../clib/printf.c                         0x00000000   Number         0  noretval__2sprintf.o ABSOLUTE
    ../clib/printf.c                         0x00000000   Number         0  __printf.o ABSOLUTE
    ../clib/printf.c                         0x00000000   Number         0  _printf_dec.o ABSOLUTE
    ../clib/printf.c                         0x00000000   Number         0  __printf_flags.o ABSOLUTE
    ../clib/printf.c                         0x00000000   Number         0  __printf_ss.o ABSOLUTE
    ../clib/printf.c                         0x00000000   Number         0  __printf_flags_ss.o ABSOLUTE
    ../clib/printf.c                         0x00000000   Number         0  __printf_wp.o ABSOLUTE
    ../clib/printf.c                         0x00000000   Number         0  __printf_flags_wp.o ABSOLUTE
    ../clib/printf.c                         0x00000000   Number         0  __printf_ss_wp.o ABSOLUTE
    ../clib/printf.c                         0x00000000   Number         0  __printf_flags_ss_wp.o ABSOLUTE
    ../clib/printf.c                         0x00000000   Number         0  _printf_pad.o ABSOLUTE
    ../clib/printf.c                         0x00000000   Number         0  _printf_truncate.o ABSOLUTE
    ../clib/printf.c                         0x00000000   Number         0  _printf_str.o ABSOLUTE
    ../clib/printf.c                         0x00000000   Number         0  _printf_intcommon.o ABSOLUTE
    ../clib/printf.c                         0x00000000   Number         0  _printf_charcount.o ABSOLUTE
    ../clib/printf.c                         0x00000000   Number         0  _printf_char_common.o ABSOLUTE
    ../clib/printf.c                         0x00000000   Number         0  _sputc.o ABSOLUTE
    ../clib/printf.c                         0x00000000   Number         0  _snputc.o ABSOLUTE
    ../clib/printf.c                         0x00000000   Number         0  _printf_wctomb.o ABSOLUTE
    ../clib/printf.c                         0x00000000   Number         0  _printf_longlong_dec.o ABSOLUTE
    ../clib/printf.c                         0x00000000   Number         0  _printf_oct_ll.o ABSOLUTE
    ../clib/printf.c                         0x00000000   Number         0  _printf_oct_int.o ABSOLUTE
    ../clib/printf.c                         0x00000000   Number         0  _printf_oct_int_ll.o ABSOLUTE
    ../clib/printf.c                         0x00000000   Number         0  _printf_hex_ll.o ABSOLUTE
    ../clib/printf.c                         0x00000000   Number         0  _printf_hex_int.o ABSOLUTE
    ../clib/printf.c                         0x00000000   Number         0  _printf_hex_int_ll.o ABSOLUTE
    ../clib/printf.c                         0x00000000   Number         0  _printf_hex_ptr.o ABSOLUTE
    ../clib/printf.c                         0x00000000   Number         0  _printf_hex_int_ptr.o ABSOLUTE
    ../clib/printf.c                         0x00000000   Number         0  _printf_hex_ll_ptr.o ABSOLUTE
    ../clib/printf.c                         0x00000000   Number         0  _printf_hex_int_ll_ptr.o ABSOLUTE
    ../clib/printf.c                         0x00000000   Number         0  _printf_fp_dec.o ABSOLUTE
    ../clib/printf.c                         0x00000000   Number         0  _printf_fp_dec_accurate.o ABSOLUTE
    ../clib/printf.c                         0x00000000   Number         0  _printf_fp_hex.o ABSOLUTE
    ../clib/printf.c                         0x00000000   Number         0  __printf_nopercent.o ABSOLUTE
    ../clib/printf.c                         0x00000000   Number         0  _printf_char.o ABSOLUTE
    ../clib/printf.c                         0x00000000   Number         0  _printf_wchar.o ABSOLUTE
    ../clib/printf.c                         0x00000000   Number         0  _printf_fp_infnan.o ABSOLUTE
    ../clib/printf_percent.s                 0x00000000   Number         0  _printf_d.o ABSOLUTE
    ../clib/printf_percent.s                 0x00000000   Number         0  _printf_percent.o ABSOLUTE
    ../clib/printf_percent.s                 0x00000000   Number         0  _printf_c.o ABSOLUTE
    ../clib/printf_percent.s                 0x00000000   Number         0  _printf_s.o ABSOLUTE
    ../clib/printf_percent.s                 0x00000000   Number         0  _printf_n.o ABSOLUTE
    ../clib/printf_percent.s                 0x00000000   Number         0  _printf_x.o ABSOLUTE
    ../clib/printf_percent.s                 0x00000000   Number         0  _printf_p.o ABSOLUTE
    ../clib/printf_percent.s                 0x00000000   Number         0  _printf_o.o ABSOLUTE
    ../clib/printf_percent.s                 0x00000000   Number         0  _printf_i.o ABSOLUTE
    ../clib/printf_percent.s                 0x00000000   Number         0  _printf_u.o ABSOLUTE
    ../clib/printf_percent.s                 0x00000000   Number         0  _printf_f.o ABSOLUTE
    ../clib/printf_percent.s                 0x00000000   Number         0  _printf_e.o ABSOLUTE
    ../clib/printf_percent.s                 0x00000000   Number         0  _printf_g.o ABSOLUTE
    ../clib/printf_percent.s                 0x00000000   Number         0  _printf_a.o ABSOLUTE
    ../clib/printf_percent.s                 0x00000000   Number         0  _printf_percent_end.o ABSOLUTE
    ../clib/printf_percent.s                 0x00000000   Number         0  _printf_lli.o ABSOLUTE
    ../clib/printf_percent.s                 0x00000000   Number         0  _printf_lld.o ABSOLUTE
    ../clib/printf_percent.s                 0x00000000   Number         0  _printf_llu.o ABSOLUTE
    ../clib/printf_percent.s                 0x00000000   Number         0  _printf_ll.o ABSOLUTE
    ../clib/printf_percent.s                 0x00000000   Number         0  _printf_l.o ABSOLUTE
    ../clib/printf_percent.s                 0x00000000   Number         0  _printf_lc.o ABSOLUTE
    ../clib/printf_percent.s                 0x00000000   Number         0  _printf_ls.o ABSOLUTE
    ../clib/printf_percent.s                 0x00000000   Number         0  _printf_llo.o ABSOLUTE
    ../clib/printf_percent.s                 0x00000000   Number         0  _printf_llx.o ABSOLUTE
    ../clib/signal.c                         0x00000000   Number         0  defsig_rtmem_outer.o ABSOLUTE
    ../clib/signal.c                         0x00000000   Number         0  defsig_rtmem_formal.o ABSOLUTE
    ../clib/signal.c                         0x00000000   Number         0  defsig_exit.o ABSOLUTE
    ../clib/signal.c                         0x00000000   Number         0  defsig_fpe_outer.o ABSOLUTE
    ../clib/signal.c                         0x00000000   Number         0  defsig_fpe_formal.o ABSOLUTE
    ../clib/signal.c                         0x00000000   Number         0  defsig_rtmem_inner.o ABSOLUTE
    ../clib/signal.c                         0x00000000   Number         0  __raise.o ABSOLUTE
    ../clib/signal.c                         0x00000000   Number         0  defsig_general.o ABSOLUTE
    ../clib/signal.c                         0x00000000   Number         0  defsig_fpe_inner.o ABSOLUTE
    ../clib/signal.c                         0x00000000   Number         0  defsig_abrt_inner.o ABSOLUTE
    ../clib/signal.c                         0x00000000   Number         0  defsig_rtred_inner.o ABSOLUTE
    ../clib/signal.c                         0x00000000   Number         0  defsig_stak_inner.o ABSOLUTE
    ../clib/signal.c                         0x00000000   Number         0  defsig_pvfn_inner.o ABSOLUTE
    ../clib/signal.c                         0x00000000   Number         0  defsig_cppl_inner.o ABSOLUTE
    ../clib/signal.c                         0x00000000   Number         0  defsig_segv_inner.o ABSOLUTE
    ../clib/signal.c                         0x00000000   Number         0  defsig_other.o ABSOLUTE
    ../clib/signal.s                         0x00000000   Number         0  defsig.o ABSOLUTE
    ../clib/stdlib.c                         0x00000000   Number         0  exit.o ABSOLUTE
    ../clib/string.c                         0x00000000   Number         0  strlen.o ABSOLUTE
    ../fplib/cfplib/cmp.c                    0x00000000   Number         0  dcmp.o ABSOLUTE
    ../fplib/cfplib/cmp.c                    0x00000000   Number         0  fcmp.o ABSOLUTE
    ../fplib/cfplib/cmpret.c                 0x00000000   Number         0  cmpret.o ABSOLUTE
    ../fplib/cfplib/daddsub.c                0x00000000   Number         0  daddsub.o ABSOLUTE
    ../fplib/cfplib/dcmpin.c                 0x00000000   Number         0  dcmpin.o ABSOLUTE
    ../fplib/cfplib/ddiv.c                   0x00000000   Number         0  ddiv.o ABSOLUTE
    ../fplib/cfplib/dmul.c                   0x00000000   Number         0  dmul.o ABSOLUTE
    ../fplib/cfplib/fcmpin.c                 0x00000000   Number         0  fcmpin.o ABSOLUTE
    ../fplib/cfplib/fdiv.c                   0x00000000   Number         0  fdiv.o ABSOLUTE
    ../fplib/cfplib/ffix.c                   0x00000000   Number         0  dfixi.o ABSOLUTE
    ../fplib/cfplib/ffix.c                   0x00000000   Number         0  ffixi.o ABSOLUTE
    ../fplib/cfplib/ffix.c                   0x00000000   Number         0  ffixui.o ABSOLUTE
    ../fplib/cfplib/fflt.c                   0x00000000   Number         0  dflti.o ABSOLUTE
    ../fplib/cfplib/fflt.c                   0x00000000   Number         0  fflti.o ABSOLUTE
    ../fplib/cfplib/fpinit.c                 0x00000000   Number         0  fpinit.o ABSOLUTE
    ../fplib/cfplib/ieee_status.c            0x00000000   Number         0  ieee_status.o ABSOLUTE
    ../fplib/cfplib/nan2.c                   0x00000000   Number         0  dnan2.o ABSOLUTE
    ../fplib/cfplib/nan2.c                   0x00000000   Number         0  fnan2.o ABSOLUTE
    ../fplib/cfplib/retnan.c                 0x00000000   Number         0  retnan.o ABSOLUTE
    ../fplib/deqf6m.s                        0x00000000   Number         0  deqf.o ABSOLUTE
    ../fplib/dgeqf6m.s                       0x00000000   Number         0  dgef.o ABSOLUTE
    ../fplib/dleqf6m.s                       0x00000000   Number         0  dlef.o ABSOLUTE
    ../fplib/faddsub6m.s                     0x00000000   Number         0  faddsub.o ABSOLUTE
    ../fplib/feqf6m.s                        0x00000000   Number         0  feqf.o ABSOLUTE
    ../fplib/fgeqf6m.s                       0x00000000   Number         0  fgef.o ABSOLUTE
    ../fplib/fleqf6m.s                       0x00000000   Number         0  flef.o ABSOLUTE
    ../fplib/fmul6m.s                        0x00000000   Number         0  fmul.o ABSOLUTE
    ../fplib/printf1.s                       0x00000000   Number         0  printf1.o ABSOLUTE
    ../fplib/printf2.s                       0x00000000   Number         0  printf2.o ABSOLUTE
    ../fplib/printf2a.s                      0x00000000   Number         0  printf2a.o ABSOLUTE
    ../fplib/printf2b.s                      0x00000000   Number         0  printf2b.o ABSOLUTE
    ../fplib/usenofp.s                       0x00000000   Number         0  usenofp.o ABSOLUTE
    ../mathlib/fpclassify.c                  0x00000000   Number         0  fpclassify.o ABSOLUTE
    DEV_CAR.c                                0x00000000   Number         0  dev_car.o ABSOLUTE
    DEV_Grayscale.c                          0x00000000   Number         0  dev_grayscale.o ABSOLUTE
    DEV_I2C.c                                0x00000000   Number         0  dev_i2c.o ABSOLUTE
    EXTI.c                                   0x00000000   Number         0  exti.o ABSOLUTE
    LED.c                                    0x00000000   Number         0  led.o ABSOLUTE
    OLED.c                                   0x00000000   Number         0  oled.o ABSOLUTE
    OLED_Font.c                              0x00000000   Number         0  oled_font.o ABSOLUTE
    PID.c                                    0x00000000   Number         0  pid.o ABSOLUTE
    Servo.c                                  0x00000000   Number         0  servo.o ABSOLUTE
    Stepper.c                                0x00000000   Number         0  stepper.o ABSOLUTE
    TIME.c                                   0x00000000   Number         0  time.o ABSOLUTE
    UART.c                                   0x00000000   Number         0  uart.o ABSOLUTE
    UI_.c                                    0x00000000   Number         0  ui_.o ABSOLUTE
    buffer.c                                 0x00000000   Number         0  buffer.o ABSOLUTE
    dc.s                                     0x00000000   Number         0  dc.o ABSOLUTE
    delay.c                                  0x00000000   Number         0  delay.o ABSOLUTE
    dl_common.c                              0x00000000   Number         0  dl_common.o ABSOLUTE
    dl_i2c.c                                 0x00000000   Number         0  dl_i2c.o ABSOLUTE
    dl_timer.c                               0x00000000   Number         0  dl_timer.o ABSOLUTE
    dl_uart.c                                0x00000000   Number         0  dl_uart.o ABSOLUTE
    main.c                                   0x00000000   Number         0  main.o ABSOLUTE
    my_task.c                                0x00000000   Number         0  my_task.o ABSOLUTE
    oled_buffer.c                            0x00000000   Number         0  oled_buffer.o ABSOLUTE
    oled_draw.c                              0x00000000   Number         0  oled_draw.o ABSOLUTE
    startup_mspm0g350x_uvision.s             0x00000000   Number         0  startup_mspm0g350x_uvision.o ABSOLUTE
    ti_msp_dl_config.c                       0x00000000   Number         0  ti_msp_dl_config.o ABSOLUTE
    RESET                                    0x00000000   Section      192  startup_mspm0g350x_uvision.o(RESET)
    !!!main                                  0x000000c0   Section        8  __main.o(!!!main)
    !!!scatter                               0x000000c8   Section       84  __scatter.o(!!!scatter)
    !!handler_null                           0x00000120   Section        2  __scatter.o(!!handler_null)
    !!handler_zi                             0x00000128   Section       28  __scatter_zi.o(!!handler_zi)
    .ARM.Collect$$_printf_percent$$00000000  0x00000144   Section        2  _printf_percent.o(.ARM.Collect$$_printf_percent$$00000000)
    .ARM.Collect$$_printf_percent$$00000009  0x00000146   Section       10  _printf_d.o(.ARM.Collect$$_printf_percent$$00000009)
    .ARM.Collect$$_printf_percent$$00000017  0x00000150   Section        4  _printf_percent_end.o(.ARM.Collect$$_printf_percent$$00000017)
    .ARM.Collect$$libinit$$00000000          0x00000154   Section        2  libinit.o(.ARM.Collect$$libinit$$00000000)
    .ARM.Collect$$libinit$$00000002          0x00000156   Section        0  libinit2.o(.ARM.Collect$$libinit$$00000002)
    .ARM.Collect$$libinit$$00000004          0x00000156   Section        0  libinit2.o(.ARM.Collect$$libinit$$00000004)
    .ARM.Collect$$libinit$$00000006          0x00000156   Section        0  libinit2.o(.ARM.Collect$$libinit$$00000006)
    .ARM.Collect$$libinit$$00000007          0x00000156   Section        8  libinit2.o(.ARM.Collect$$libinit$$00000007)
    .ARM.Collect$$libinit$$0000000C          0x0000015e   Section        0  libinit2.o(.ARM.Collect$$libinit$$0000000C)
    .ARM.Collect$$libinit$$0000000E          0x0000015e   Section        0  libinit2.o(.ARM.Collect$$libinit$$0000000E)
    .ARM.Collect$$libinit$$00000010          0x0000015e   Section        0  libinit2.o(.ARM.Collect$$libinit$$00000010)
    .ARM.Collect$$libinit$$00000013          0x0000015e   Section        0  libinit2.o(.ARM.Collect$$libinit$$00000013)
    .ARM.Collect$$libinit$$00000015          0x0000015e   Section        0  libinit2.o(.ARM.Collect$$libinit$$00000015)
    .ARM.Collect$$libinit$$00000017          0x0000015e   Section        0  libinit2.o(.ARM.Collect$$libinit$$00000017)
    .ARM.Collect$$libinit$$00000019          0x0000015e   Section        0  libinit2.o(.ARM.Collect$$libinit$$00000019)
    .ARM.Collect$$libinit$$0000001B          0x0000015e   Section        0  libinit2.o(.ARM.Collect$$libinit$$0000001B)
    .ARM.Collect$$libinit$$0000001D          0x0000015e   Section        0  libinit2.o(.ARM.Collect$$libinit$$0000001D)
    .ARM.Collect$$libinit$$0000001F          0x0000015e   Section        0  libinit2.o(.ARM.Collect$$libinit$$0000001F)
    .ARM.Collect$$libinit$$00000021          0x0000015e   Section        0  libinit2.o(.ARM.Collect$$libinit$$00000021)
    .ARM.Collect$$libinit$$00000023          0x0000015e   Section        0  libinit2.o(.ARM.Collect$$libinit$$00000023)
    .ARM.Collect$$libinit$$00000025          0x0000015e   Section        0  libinit2.o(.ARM.Collect$$libinit$$00000025)
    .ARM.Collect$$libinit$$00000027          0x0000015e   Section        0  libinit2.o(.ARM.Collect$$libinit$$00000027)
    .ARM.Collect$$libinit$$0000002E          0x0000015e   Section        0  libinit2.o(.ARM.Collect$$libinit$$0000002E)
    .ARM.Collect$$libinit$$00000030          0x0000015e   Section        0  libinit2.o(.ARM.Collect$$libinit$$00000030)
    .ARM.Collect$$libinit$$00000032          0x0000015e   Section        0  libinit2.o(.ARM.Collect$$libinit$$00000032)
    .ARM.Collect$$libinit$$00000034          0x0000015e   Section        0  libinit2.o(.ARM.Collect$$libinit$$00000034)
    .ARM.Collect$$libinit$$00000035          0x0000015e   Section        2  libinit2.o(.ARM.Collect$$libinit$$00000035)
    .ARM.Collect$$libshutdown$$00000000      0x00000160   Section        2  libshutdown.o(.ARM.Collect$$libshutdown$$00000000)
    .ARM.Collect$$libshutdown$$00000002      0x00000162   Section        0  libshutdown2.o(.ARM.Collect$$libshutdown$$00000002)
    .ARM.Collect$$libshutdown$$00000004      0x00000162   Section        0  libshutdown2.o(.ARM.Collect$$libshutdown$$00000004)
    .ARM.Collect$$libshutdown$$00000007      0x00000162   Section        0  libshutdown2.o(.ARM.Collect$$libshutdown$$00000007)
    .ARM.Collect$$libshutdown$$0000000A      0x00000162   Section        0  libshutdown2.o(.ARM.Collect$$libshutdown$$0000000A)
    .ARM.Collect$$libshutdown$$0000000C      0x00000162   Section        0  libshutdown2.o(.ARM.Collect$$libshutdown$$0000000C)
    .ARM.Collect$$libshutdown$$0000000F      0x00000162   Section        0  libshutdown2.o(.ARM.Collect$$libshutdown$$0000000F)
    .ARM.Collect$$libshutdown$$00000010      0x00000162   Section        2  libshutdown2.o(.ARM.Collect$$libshutdown$$00000010)
    .ARM.Collect$$rtentry$$00000000          0x00000164   Section        0  __rtentry.o(.ARM.Collect$$rtentry$$00000000)
    .ARM.Collect$$rtentry$$00000002          0x00000164   Section        0  __rtentry2.o(.ARM.Collect$$rtentry$$00000002)
    .ARM.Collect$$rtentry$$00000004          0x00000164   Section        6  __rtentry4.o(.ARM.Collect$$rtentry$$00000004)
    .ARM.Collect$$rtentry$$00000009          0x0000016a   Section        0  __rtentry2.o(.ARM.Collect$$rtentry$$00000009)
    .ARM.Collect$$rtentry$$0000000A          0x0000016a   Section        4  __rtentry2.o(.ARM.Collect$$rtentry$$0000000A)
    .ARM.Collect$$rtentry$$0000000C          0x0000016e   Section        0  __rtentry2.o(.ARM.Collect$$rtentry$$0000000C)
    .ARM.Collect$$rtentry$$0000000D          0x0000016e   Section        8  __rtentry2.o(.ARM.Collect$$rtentry$$0000000D)
    .ARM.Collect$$rtexit$$00000000           0x00000176   Section        2  rtexit.o(.ARM.Collect$$rtexit$$00000000)
    .ARM.Collect$$rtexit$$00000002           0x00000178   Section        0  rtexit2.o(.ARM.Collect$$rtexit$$00000002)
    .ARM.Collect$$rtexit$$00000003           0x00000178   Section        4  rtexit2.o(.ARM.Collect$$rtexit$$00000003)
    .ARM.Collect$$rtexit$$00000004           0x0000017c   Section        6  rtexit2.o(.ARM.Collect$$rtexit$$00000004)
    .text                                    0x00000184   Section       48  startup_mspm0g350x_uvision.o(.text)
    .text                                    0x000001b4   Section        0  h1_alloc.o(.text)
    .text                                    0x00000216   Section        0  h1_free.o(.text)
    .text                                    0x00000264   Section        0  __2sprintf.o(.text)
    .text                                    0x00000290   Section        0  _printf_dec.o(.text)
    .text                                    0x000002fc   Section        0  __printf_flags_ss_wp.o(.text)
    .text                                    0x00000484   Section        0  aeabi_memset4.o(.text)
    .text                                    0x00000496   Section        0  rt_memclr.o(.text)
    .text                                    0x000004d6   Section        0  heapauxi.o(.text)
    _dadd1                                   0x000004dd   Thumb Code   290  daddsub.o(.text)
    .text                                    0x000004dc   Section        0  daddsub.o(.text)
    _dsub1                                   0x000005ff   Thumb Code   470  daddsub.o(.text)
    .text                                    0x00000834   Section        0  ddiv.o(.text)
    .text                                    0x00000c7c   Section        0  dfixi.o(.text)
    .text                                    0x00000ce8   Section        0  dflti.o(.text)
    .text                                    0x00000d40   Section        0  dmul.o(.text)
    .text                                    0x00000f88   Section        0  ffixi.o(.text)
    .text                                    0x00000fd4   Section        0  fflti.o(.text)
    .text                                    0x00001034   Section        8  rt_heap_descriptor_intlibspace.o(.text)
    .text                                    0x0000103c   Section        0  hguard.o(.text)
    .text                                    0x00001040   Section        0  init_alloc.o(.text)
    .text                                    0x000010c8   Section        0  h1_init.o(.text)
    .text                                    0x000010d4   Section        0  _printf_intcommon.o(.text)
    _printf_input_char                       0x00001185   Thumb Code    10  _printf_char_common.o(.text)
    .text                                    0x00001184   Section        0  _printf_char_common.o(.text)
    .text                                    0x000011b4   Section        0  _sputc.o(.text)
    .text                                    0x000011be   Section        0  rtudiv10.o(.text)
    .text                                    0x000011e8   Section        8  libspace.o(.text)
    .text                                    0x000011f0   Section        0  maybetermalloc1.o(.text)
    .text                                    0x000011f0   Section        0  h1_extend.o(.text)
    .text                                    0x00001224   Section        0  defsig_rtmem_outer.o(.text)
    .text                                    0x00001230   Section        0  dcmpin.o(.text)
    .text                                    0x000012d0   Section        0  fcmpin.o(.text)
    .text                                    0x00001334   Section        2  use_no_semi.o(.text)
    .text                                    0x00001336   Section        0  indicate_semi.o(.text)
    .text                                    0x00001336   Section       62  sys_stackheap_outer.o(.text)
    .text                                    0x00001374   Section        0  exit.o(.text)
    .text                                    0x00001384   Section        0  defsig_exit.o(.text)
    .text                                    0x00001390   Section        0  defsig_rtmem_inner.o(.text)
    .text                                    0x000013e0   Section        0  cmpret.o(.text)
    .text                                    0x00001410   Section        0  dnan2.o(.text)
    .text                                    0x00001424   Section        0  fnan2.o(.text)
    .text                                    0x00001434   Section        0  sys_exit.o(.text)
    .text                                    0x00001440   Section        0  defsig_general.o(.text)
    .text                                    0x00001474   Section        0  retnan.o(.text)
    .text                                    0x000014d2   Section        0  sys_wrch.o(.text)
    .text                                    0x000014de   Section        0  __dczerorl.o(.text)
    [Anonymous Symbol]                       0x00001518   Section        0  buffer.o(.text.BUFF_pop_by_Protocol)
    [Anonymous Symbol]                       0x000016f8   Section        0  dev_car.o(.text.Car_Set_Direction)
    [Anonymous Symbol]                       0x0000184c   Section        0  oled_buffer.o(.text.ClearScreenBuffer)
    __arm_cp.0_0                             0x0000185c   Number         4  oled_buffer.o(.text.ClearScreenBuffer)
    [Anonymous Symbol]                       0x00001860   Section        0  dev_car.o(.text.DEV_CAR_Init)
    [Anonymous Symbol]                       0x00001888   Section        0  dev_car.o(.text.DEV_CAR_Set_Speed)
    __arm_cp.2_0                             0x000019a0   Number         4  dev_car.o(.text.DEV_CAR_Set_Speed)
    __arm_cp.2_1                             0x000019a4   Number         4  dev_car.o(.text.DEV_CAR_Set_Speed)
    __arm_cp.2_2                             0x000019a8   Number         4  dev_car.o(.text.DEV_CAR_Set_Speed)
    __arm_cp.2_3                             0x000019ac   Number         4  dev_car.o(.text.DEV_CAR_Set_Speed)
    __arm_cp.2_4                             0x000019b0   Number         4  dev_car.o(.text.DEV_CAR_Set_Speed)
    __arm_cp.2_5                             0x000019b4   Number         4  dev_car.o(.text.DEV_CAR_Set_Speed)
    __arm_cp.2_6                             0x000019b8   Number         4  dev_car.o(.text.DEV_CAR_Set_Speed)
    [Anonymous Symbol]                       0x000019bc   Section        0  dl_common.o(.text.DL_Common_delayCycles)
    DL_Common_updateReg                      0x000019d1   Thumb Code    40  dl_i2c.o(.text.DL_Common_updateReg)
    [Anonymous Symbol]                       0x000019d0   Section        0  dl_i2c.o(.text.DL_Common_updateReg)
    DL_Common_updateReg                      0x000019f9   Thumb Code    40  dl_timer.o(.text.DL_Common_updateReg)
    [Anonymous Symbol]                       0x000019f8   Section        0  dl_timer.o(.text.DL_Common_updateReg)
    DL_Common_updateReg                      0x00001a21   Thumb Code    40  dl_uart.o(.text.DL_Common_updateReg)
    [Anonymous Symbol]                       0x00001a20   Section        0  dl_uart.o(.text.DL_Common_updateReg)
    [Anonymous Symbol]                       0x00001a48   Section        0  dl_i2c.o(.text.DL_I2C_fillControllerTXFIFO)
    [Anonymous Symbol]                       0x00001a9e   Section        0  dl_i2c.o(.text.DL_I2C_flushControllerTXFIFO)
    DL_I2C_isControllerTXFIFOEmpty           0x00001ac5   Thumb Code    32  dl_i2c.o(.text.DL_I2C_isControllerTXFIFOEmpty)
    [Anonymous Symbol]                       0x00001ac4   Section        0  dl_i2c.o(.text.DL_I2C_isControllerTXFIFOEmpty)
    __arm_cp.8_1                             0x00001ae0   Number         4  dl_i2c.o(.text.DL_I2C_isControllerTXFIFOEmpty)
    DL_I2C_isControllerTXFIFOFull            0x00001ae5   Thumb Code    28  dl_i2c.o(.text.DL_I2C_isControllerTXFIFOFull)
    [Anonymous Symbol]                       0x00001ae4   Section        0  dl_i2c.o(.text.DL_I2C_isControllerTXFIFOFull)
    __arm_cp.4_0                             0x00001afc   Number         4  dl_i2c.o(.text.DL_I2C_isControllerTXFIFOFull)
    [Anonymous Symbol]                       0x00001b00   Section        0  dl_i2c.o(.text.DL_I2C_setClockConfig)
    __arm_cp.0_0                             0x00001b30   Number         4  dl_i2c.o(.text.DL_I2C_setClockConfig)
    DL_I2C_startFlushControllerTXFIFO        0x00001b35   Thumb Code    20  dl_i2c.o(.text.DL_I2C_startFlushControllerTXFIFO)
    [Anonymous Symbol]                       0x00001b34   Section        0  dl_i2c.o(.text.DL_I2C_startFlushControllerTXFIFO)
    DL_I2C_stopFlushControllerTXFIFO         0x00001b49   Thumb Code    24  dl_i2c.o(.text.DL_I2C_stopFlushControllerTXFIFO)
    [Anonymous Symbol]                       0x00001b48   Section        0  dl_i2c.o(.text.DL_I2C_stopFlushControllerTXFIFO)
    __arm_cp.9_0                             0x00001b5c   Number         4  dl_i2c.o(.text.DL_I2C_stopFlushControllerTXFIFO)
    DL_I2C_transmitControllerData            0x00001b61   Thumb Code    24  dl_i2c.o(.text.DL_I2C_transmitControllerData)
    [Anonymous Symbol]                       0x00001b60   Section        0  dl_i2c.o(.text.DL_I2C_transmitControllerData)
    [Anonymous Symbol]                       0x00001b78   Section        0  dl_timer.o(.text.DL_TimerA_initPWMMode)
    [Anonymous Symbol]                       0x00001c68   Section        0  dl_timer.o(.text.DL_Timer_initPWMMode)
    __arm_cp.17_0                            0x00001d78   Number         4  dl_timer.o(.text.DL_Timer_initPWMMode)
    __arm_cp.17_2                            0x00001d7c   Number         4  dl_timer.o(.text.DL_Timer_initPWMMode)
    [Anonymous Symbol]                       0x00001d80   Section        0  dl_timer.o(.text.DL_Timer_initTimerMode)
    [Anonymous Symbol]                       0x00001e14   Section        0  dl_timer.o(.text.DL_Timer_setCaptCompUpdateMethod)
    [Anonymous Symbol]                       0x00001e48   Section        0  dl_timer.o(.text.DL_Timer_setCaptureCompareAction)
    __arm_cp.18_0                            0x00001e78   Number         4  dl_timer.o(.text.DL_Timer_setCaptureCompareAction)
    __arm_cp.18_1                            0x00001e7c   Number         4  dl_timer.o(.text.DL_Timer_setCaptureCompareAction)
    [Anonymous Symbol]                       0x00001e80   Section        0  dl_timer.o(.text.DL_Timer_setCaptureCompareCtl)
    __arm_cp.6_0                             0x00001eb8   Number         4  dl_timer.o(.text.DL_Timer_setCaptureCompareCtl)
    __arm_cp.6_1                             0x00001ebc   Number         4  dl_timer.o(.text.DL_Timer_setCaptureCompareCtl)
    [Anonymous Symbol]                       0x00001ec0   Section        0  dl_timer.o(.text.DL_Timer_setCaptureCompareInput)
    [Anonymous Symbol]                       0x00001ef8   Section        0  dl_timer.o(.text.DL_Timer_setCaptureCompareOutCtl)
    __arm_cp.19_0                            0x00001f30   Number         4  dl_timer.o(.text.DL_Timer_setCaptureCompareOutCtl)
    [Anonymous Symbol]                       0x00001f34   Section        0  dl_timer.o(.text.DL_Timer_setCaptureCompareValue)
    __arm_cp.5_0                             0x00001f5c   Number         4  dl_timer.o(.text.DL_Timer_setCaptureCompareValue)
    [Anonymous Symbol]                       0x00001f60   Section        0  dl_timer.o(.text.DL_Timer_setClockConfig)
    __arm_cp.0_1                             0x00001f8c   Number         4  dl_timer.o(.text.DL_Timer_setClockConfig)
    DL_Timer_setCounterValueAfterEnable      0x00001f91   Thumb Code    32  dl_timer.o(.text.DL_Timer_setCounterValueAfterEnable)
    [Anonymous Symbol]                       0x00001f90   Section        0  dl_timer.o(.text.DL_Timer_setCounterValueAfterEnable)
    __arm_cp.4_0                             0x00001fac   Number         4  dl_timer.o(.text.DL_Timer_setCounterValueAfterEnable)
    DL_Timer_setLoadValue                    0x00001fb1   Thumb Code    24  dl_timer.o(.text.DL_Timer_setLoadValue)
    [Anonymous Symbol]                       0x00001fb0   Section        0  dl_timer.o(.text.DL_Timer_setLoadValue)
    __arm_cp.3_0                             0x00001fc4   Number         4  dl_timer.o(.text.DL_Timer_setLoadValue)
    DL_UART_disable                          0x00001fc9   Thumb Code    22  dl_uart.o(.text.DL_UART_disable)
    [Anonymous Symbol]                       0x00001fc8   Section        0  dl_uart.o(.text.DL_UART_disable)
    [Anonymous Symbol]                       0x00001fe0   Section        0  dl_uart.o(.text.DL_UART_init)
    __arm_cp.0_0                             0x00002030   Number         4  dl_uart.o(.text.DL_UART_init)
    __arm_cp.0_1                             0x00002034   Number         4  dl_uart.o(.text.DL_UART_init)
    [Anonymous Symbol]                       0x00002038   Section        0  dl_uart.o(.text.DL_UART_setClockConfig)
    __arm_cp.3_0                             0x00002058   Number         4  dl_uart.o(.text.DL_UART_setClockConfig)
    [Anonymous Symbol]                       0x0000205c   Section        0  oled_draw.o(.text.DrawChar)
    __arm_cp.0_0                             0x000020bc   Number         4  oled_draw.o(.text.DrawChar)
    [Anonymous Symbol]                       0x000020c0   Section        0  oled_draw.o(.text.DrawString)
    [Anonymous Symbol]                       0x000020fc   Section        0  exti.o(.text.EXTI_Init)
    __arm_cp.0_0                             0x00002108   Number         4  exti.o(.text.EXTI_Init)
    [Anonymous Symbol]                       0x0000210c   Section        0  exti.o(.text.GROUP1_IRQHandler)
    __arm_cp.6_0                             0x0000228c   Number         4  exti.o(.text.GROUP1_IRQHandler)
    __arm_cp.6_1                             0x00002290   Number         4  exti.o(.text.GROUP1_IRQHandler)
    __arm_cp.6_2                             0x00002294   Number         4  exti.o(.text.GROUP1_IRQHandler)
    __arm_cp.6_3                             0x00002298   Number         4  exti.o(.text.GROUP1_IRQHandler)
    __arm_cp.6_4                             0x0000229c   Number         4  exti.o(.text.GROUP1_IRQHandler)
    __arm_cp.6_5                             0x000022a0   Number         4  exti.o(.text.GROUP1_IRQHandler)
    __arm_cp.6_6                             0x000022a4   Number         4  exti.o(.text.GROUP1_IRQHandler)
    [Anonymous Symbol]                       0x000022a8   Section        0  dev_i2c.o(.text.I2C0_IRQHandler)
    __arm_cp.3_0                             0x000022c4   Number         4  dev_i2c.o(.text.I2C0_IRQHandler)
    [Anonymous Symbol]                       0x000022c8   Section        0  dev_i2c.o(.text.I2C_WriteArray2Register_With_Blocking)
    __arm_cp.2_3                             0x000024a8   Number         4  dev_i2c.o(.text.I2C_WriteArray2Register_With_Blocking)
    [Anonymous Symbol]                       0x000024ac   Section        0  dev_i2c.o(.text.I2C_WriteArray_With_Blocking)
    __arm_cp.1_0                             0x000025c0   Number         4  dev_i2c.o(.text.I2C_WriteArray_With_Blocking)
    __arm_cp.1_1                             0x000025c4   Number         4  dev_i2c.o(.text.I2C_WriteArray_With_Blocking)
    __arm_cp.1_2                             0x000025c8   Number         4  dev_i2c.o(.text.I2C_WriteArray_With_Blocking)
    __arm_cp.1_3                             0x000025cc   Number         4  dev_i2c.o(.text.I2C_WriteArray_With_Blocking)
    __arm_cp.1_4                             0x000025d0   Number         4  dev_i2c.o(.text.I2C_WriteArray_With_Blocking)
    __arm_cp.1_5                             0x000025d4   Number         4  dev_i2c.o(.text.I2C_WriteArray_With_Blocking)
    [Anonymous Symbol]                       0x000025d8   Section        0  dev_i2c.o(.text.I2C__init__)
    __arm_cp.0_0                             0x00002604   Number         4  dev_i2c.o(.text.I2C__init__)
    __arm_cp.0_1                             0x00002608   Number         4  dev_i2c.o(.text.I2C__init__)
    [Anonymous Symbol]                       0x0000260c   Section        0  buffer.o(.text.Iinitial_BUFF)
    [Anonymous Symbol]                       0x0000262c   Section        0  led.o(.text.LED_OFF)
    [Anonymous Symbol]                       0x0000263c   Section        0  led.o(.text.LED_ON)
    __arm_cp.0_0                             0x00002650   Number         4  led.o(.text.LED_ON)
    __arm_cp.0_1                             0x00002654   Number         4  led.o(.text.LED_ON)
    [Anonymous Symbol]                       0x00002658   Section        0  oled.o(.text.OLED_CLS)
    [Anonymous Symbol]                       0x000026c0   Section        0  oled.o(.text.OLED_FILL)
    [Anonymous Symbol]                       0x00002720   Section        0  oled.o(.text.OLED_Init)
    __arm_cp.4_0                             0x000028f0   Number         4  oled.o(.text.OLED_Init)
    [Anonymous Symbol]                       0x000028f4   Section        0  pid.o(.text.PID_Initialize)
    [Anonymous Symbol]                       0x00002912   Section        0  pid.o(.text.PID_Realize)
    [Anonymous Symbol]                       0x00002990   Section        0  ti_msp_dl_config.o(.text.SYSCFG_DL_GPIO_init)
    __arm_cp.2_0                             0x00002a8c   Number         4  ti_msp_dl_config.o(.text.SYSCFG_DL_GPIO_init)
    __arm_cp.2_1                             0x00002a90   Number         4  ti_msp_dl_config.o(.text.SYSCFG_DL_GPIO_init)
    __arm_cp.2_2                             0x00002a94   Number         4  ti_msp_dl_config.o(.text.SYSCFG_DL_GPIO_init)
    __arm_cp.2_3                             0x00002a98   Number         4  ti_msp_dl_config.o(.text.SYSCFG_DL_GPIO_init)
    __arm_cp.2_4                             0x00002a9c   Number         4  ti_msp_dl_config.o(.text.SYSCFG_DL_GPIO_init)
    __arm_cp.2_5                             0x00002aa0   Number         4  ti_msp_dl_config.o(.text.SYSCFG_DL_GPIO_init)
    __arm_cp.2_6                             0x00002aa4   Number         4  ti_msp_dl_config.o(.text.SYSCFG_DL_GPIO_init)
    __arm_cp.2_7                             0x00002aa8   Number         4  ti_msp_dl_config.o(.text.SYSCFG_DL_GPIO_init)
    __arm_cp.2_8                             0x00002aac   Number         4  ti_msp_dl_config.o(.text.SYSCFG_DL_GPIO_init)
    __arm_cp.2_9                             0x00002ab0   Number         4  ti_msp_dl_config.o(.text.SYSCFG_DL_GPIO_init)
    __arm_cp.2_10                            0x00002ab4   Number         4  ti_msp_dl_config.o(.text.SYSCFG_DL_GPIO_init)
    [Anonymous Symbol]                       0x00002ab8   Section        0  ti_msp_dl_config.o(.text.SYSCFG_DL_I2C0_init)
    __arm_cp.7_0                             0x00002b28   Number         4  ti_msp_dl_config.o(.text.SYSCFG_DL_I2C0_init)
    __arm_cp.7_1                             0x00002b2c   Number         4  ti_msp_dl_config.o(.text.SYSCFG_DL_I2C0_init)
    __arm_cp.7_2                             0x00002b30   Number         4  ti_msp_dl_config.o(.text.SYSCFG_DL_I2C0_init)
    __arm_cp.7_3                             0x00002b34   Number         4  ti_msp_dl_config.o(.text.SYSCFG_DL_I2C0_init)
    __arm_cp.7_4                             0x00002b38   Number         4  ti_msp_dl_config.o(.text.SYSCFG_DL_I2C0_init)
    [Anonymous Symbol]                       0x00002b3c   Section        0  ti_msp_dl_config.o(.text.SYSCFG_DL_PWM_Motor_Left_init)
    __arm_cp.4_0                             0x00002bcc   Number         4  ti_msp_dl_config.o(.text.SYSCFG_DL_PWM_Motor_Left_init)
    __arm_cp.4_1                             0x00002bd0   Number         4  ti_msp_dl_config.o(.text.SYSCFG_DL_PWM_Motor_Left_init)
    __arm_cp.4_2                             0x00002bd4   Number         4  ti_msp_dl_config.o(.text.SYSCFG_DL_PWM_Motor_Left_init)
    __arm_cp.4_4                             0x00002bd8   Number         4  ti_msp_dl_config.o(.text.SYSCFG_DL_PWM_Motor_Left_init)
    [Anonymous Symbol]                       0x00002bdc   Section        0  ti_msp_dl_config.o(.text.SYSCFG_DL_PWM_Motor_Right_init)
    __arm_cp.5_0                             0x00002c48   Number         4  ti_msp_dl_config.o(.text.SYSCFG_DL_PWM_Motor_Right_init)
    __arm_cp.5_1                             0x00002c4c   Number         4  ti_msp_dl_config.o(.text.SYSCFG_DL_PWM_Motor_Right_init)
    __arm_cp.5_2                             0x00002c50   Number         4  ti_msp_dl_config.o(.text.SYSCFG_DL_PWM_Motor_Right_init)
    __arm_cp.5_3                             0x00002c54   Number         4  ti_msp_dl_config.o(.text.SYSCFG_DL_PWM_Motor_Right_init)
    __arm_cp.5_4                             0x00002c58   Number         4  ti_msp_dl_config.o(.text.SYSCFG_DL_PWM_Motor_Right_init)
    [Anonymous Symbol]                       0x00002c5c   Section        0  ti_msp_dl_config.o(.text.SYSCFG_DL_SYSCTL_init)
    __arm_cp.3_0                             0x00002cb0   Number         4  ti_msp_dl_config.o(.text.SYSCFG_DL_SYSCTL_init)
    __arm_cp.3_1                             0x00002cb4   Number         4  ti_msp_dl_config.o(.text.SYSCFG_DL_SYSCTL_init)
    __arm_cp.3_2                             0x00002cb8   Number         4  ti_msp_dl_config.o(.text.SYSCFG_DL_SYSCTL_init)
    [Anonymous Symbol]                       0x00002cbc   Section        0  ti_msp_dl_config.o(.text.SYSCFG_DL_SYSTICK_init)
    __arm_cp.9_0                             0x00002ce0   Number         4  ti_msp_dl_config.o(.text.SYSCFG_DL_SYSTICK_init)
    __arm_cp.9_1                             0x00002ce4   Number         4  ti_msp_dl_config.o(.text.SYSCFG_DL_SYSTICK_init)
    __arm_cp.9_2                             0x00002ce8   Number         4  ti_msp_dl_config.o(.text.SYSCFG_DL_SYSTICK_init)
    [Anonymous Symbol]                       0x00002cec   Section        0  ti_msp_dl_config.o(.text.SYSCFG_DL_TIMER_0_init)
    __arm_cp.6_0                             0x00002d20   Number         4  ti_msp_dl_config.o(.text.SYSCFG_DL_TIMER_0_init)
    __arm_cp.6_1                             0x00002d24   Number         4  ti_msp_dl_config.o(.text.SYSCFG_DL_TIMER_0_init)
    __arm_cp.6_2                             0x00002d28   Number         4  ti_msp_dl_config.o(.text.SYSCFG_DL_TIMER_0_init)
    __arm_cp.6_3                             0x00002d2c   Number         4  ti_msp_dl_config.o(.text.SYSCFG_DL_TIMER_0_init)
    __arm_cp.6_4                             0x00002d30   Number         4  ti_msp_dl_config.o(.text.SYSCFG_DL_TIMER_0_init)
    __arm_cp.6_5                             0x00002d34   Number         4  ti_msp_dl_config.o(.text.SYSCFG_DL_TIMER_0_init)
    [Anonymous Symbol]                       0x00002d38   Section        0  ti_msp_dl_config.o(.text.SYSCFG_DL_UART2_init)
    __arm_cp.8_0                             0x00002d9c   Number         4  ti_msp_dl_config.o(.text.SYSCFG_DL_UART2_init)
    __arm_cp.8_1                             0x00002da0   Number         4  ti_msp_dl_config.o(.text.SYSCFG_DL_UART2_init)
    __arm_cp.8_2                             0x00002da4   Number         4  ti_msp_dl_config.o(.text.SYSCFG_DL_UART2_init)
    __arm_cp.8_3                             0x00002da8   Number         4  ti_msp_dl_config.o(.text.SYSCFG_DL_UART2_init)
    __arm_cp.8_4                             0x00002dac   Number         4  ti_msp_dl_config.o(.text.SYSCFG_DL_UART2_init)
    __arm_cp.8_5                             0x00002db0   Number         4  ti_msp_dl_config.o(.text.SYSCFG_DL_UART2_init)
    __arm_cp.8_6                             0x00002db4   Number         4  ti_msp_dl_config.o(.text.SYSCFG_DL_UART2_init)
    [Anonymous Symbol]                       0x00002db8   Section        0  ti_msp_dl_config.o(.text.SYSCFG_DL_init)
    __arm_cp.0_0                             0x00002df0   Number         4  ti_msp_dl_config.o(.text.SYSCFG_DL_init)
    __arm_cp.0_1                             0x00002df4   Number         4  ti_msp_dl_config.o(.text.SYSCFG_DL_init)
    [Anonymous Symbol]                       0x00002df8   Section        0  ti_msp_dl_config.o(.text.SYSCFG_DL_initPower)
    __arm_cp.1_0                             0x00002e34   Number         4  ti_msp_dl_config.o(.text.SYSCFG_DL_initPower)
    __arm_cp.1_1                             0x00002e38   Number         4  ti_msp_dl_config.o(.text.SYSCFG_DL_initPower)
    __arm_cp.1_2                             0x00002e3c   Number         4  ti_msp_dl_config.o(.text.SYSCFG_DL_initPower)
    __arm_cp.1_3                             0x00002e40   Number         4  ti_msp_dl_config.o(.text.SYSCFG_DL_initPower)
    __arm_cp.1_4                             0x00002e44   Number         4  ti_msp_dl_config.o(.text.SYSCFG_DL_initPower)
    __arm_cp.1_5                             0x00002e48   Number         4  ti_msp_dl_config.o(.text.SYSCFG_DL_initPower)
    __arm_cp.1_6                             0x00002e4c   Number         4  ti_msp_dl_config.o(.text.SYSCFG_DL_initPower)
    __arm_cp.1_7                             0x00002e50   Number         4  ti_msp_dl_config.o(.text.SYSCFG_DL_initPower)
    __arm_cp.1_8                             0x00002e54   Number         4  ti_msp_dl_config.o(.text.SYSCFG_DL_initPower)
    [Anonymous Symbol]                       0x00002e58   Section        0  delay.o(.text.SysTick_Handler)
    __arm_cp.1_0                             0x00002e78   Number         4  delay.o(.text.SysTick_Handler)
    [Anonymous Symbol]                       0x00002e7c   Section        0  time.o(.text.TIMG0_IRQHandler)
    __arm_cp.0_0                             0x00002ea0   Number         4  time.o(.text.TIMG0_IRQHandler)
    __arm_cp.0_2                             0x00002ea4   Number         4  time.o(.text.TIMG0_IRQHandler)
    [Anonymous Symbol]                       0x00002ea8   Section        0  uart.o(.text.UART2_IRQHandler)
    __arm_cp.3_1                             0x00002ecc   Number         4  uart.o(.text.UART2_IRQHandler)
    __arm_cp.3_2                             0x00002ed0   Number         4  uart.o(.text.UART2_IRQHandler)
    __arm_cp.3_3                             0x00002ed4   Number         4  uart.o(.text.UART2_IRQHandler)
    [Anonymous Symbol]                       0x00002ed8   Section        0  uart.o(.text.UART_NVIC_Init)
    __arm_cp.0_0                             0x00002ef0   Number         4  uart.o(.text.UART_NVIC_Init)
    __arm_cp.0_1                             0x00002ef4   Number         4  uart.o(.text.UART_NVIC_Init)
    __arm_cp.0_2                             0x00002ef8   Number         4  uart.o(.text.UART_NVIC_Init)
    [Anonymous Symbol]                       0x00002efc   Section        0  ui_.o(.text.UI_back)
    [Anonymous Symbol]                       0x00002f1c   Section        0  ui_.o(.text.UI_enter)
    [Anonymous Symbol]                       0x00002f48   Section        0  ui_.o(.text.UI_next)
    [Anonymous Symbol]                       0x00002f78   Section        0  ui_.o(.text.UI_prev)
    __arm_cp.3_0                             0x00002fa8   Number         4  ui_.o(.text.UI_prev)
    [Anonymous Symbol]                       0x00002fac   Section        0  ui_.o(.text.UI_updata)
    __arm_cp.1_0                             0x0000300c   Number         4  ui_.o(.text.UI_updata)
    __arm_cp.1_1                             0x00003010   Number         4  ui_.o(.text.UI_updata)
    [Anonymous Symbol]                       0x00003014   Section        0  oled_buffer.o(.text.UpdateScreenDisplay)
    [Anonymous Symbol]                       0x00003020   Section        0  oled_buffer.o(.text.WriteByteBuffer)
    __arm_cp.2_0                             0x0000302c   Number         4  oled_buffer.o(.text.WriteByteBuffer)
    [Anonymous Symbol]                       0x00003030   Section        0  buffer.o(.text.Write_BUFF)
    [Anonymous Symbol]                       0x00003078   Section        0  ui_.o(.text.add_time)
    __arm_cp.11_0                            0x0000309c   Number         4  ui_.o(.text.add_time)
    __arm_cp.11_1                            0x000030a0   Number         4  ui_.o(.text.add_time)
    __arm_cp.11_2                            0x000030a4   Number         4  ui_.o(.text.add_time)
    [Anonymous Symbol]                       0x000030a8   Section        0  ui_.o(.text.angle_tuning_init)
    __arm_cp.10_0                            0x000030b8   Number         4  ui_.o(.text.angle_tuning_init)
    __arm_cp.10_1                            0x000030bc   Number         4  ui_.o(.text.angle_tuning_init)
    [Anonymous Symbol]                       0x000030c0   Section        0  exti.o(.text.bsp_GetKey)
    __arm_cp.2_0                             0x000030e0   Number         4  exti.o(.text.bsp_GetKey)
    [Anonymous Symbol]                       0x000030e4   Section        0  delay.o(.text.delay_ms)
    __arm_cp.0_0                             0x00003104   Number         4  delay.o(.text.delay_ms)
    [Anonymous Symbol]                       0x00003108   Section        0  my_task.o(.text.follow_angle)
    __arm_cp.3_6                             0x00003190   Number         4  my_task.o(.text.follow_angle)
    __arm_cp.3_7                             0x00003194   Number         4  my_task.o(.text.follow_angle)
    __arm_cp.3_9                             0x00003198   Number         4  my_task.o(.text.follow_angle)
    [Anonymous Symbol]                       0x0000319c   Section        0  my_task.o(.text.follow_angle_FAST)
    __arm_cp.0_0                             0x0000326c   Number         4  my_task.o(.text.follow_angle_FAST)
    __arm_cp.0_1                             0x00003270   Number         4  my_task.o(.text.follow_angle_FAST)
    __arm_cp.0_2                             0x00003274   Number         4  my_task.o(.text.follow_angle_FAST)
    __arm_cp.0_3                             0x00003278   Number         4  my_task.o(.text.follow_angle_FAST)
    __arm_cp.0_4                             0x0000327c   Number         4  my_task.o(.text.follow_angle_FAST)
    __arm_cp.0_5                             0x00003280   Number         4  my_task.o(.text.follow_angle_FAST)
    __arm_cp.0_6                             0x00003284   Number         4  my_task.o(.text.follow_angle_FAST)
    __arm_cp.0_7                             0x00003288   Number         4  my_task.o(.text.follow_angle_FAST)
    __arm_cp.0_8                             0x0000328c   Number         4  my_task.o(.text.follow_angle_FAST)
    __arm_cp.0_9                             0x00003290   Number         4  my_task.o(.text.follow_angle_FAST)
    __arm_cp.0_10                            0x00003294   Number         4  my_task.o(.text.follow_angle_FAST)
    __arm_cp.0_11                            0x00003298   Number         4  my_task.o(.text.follow_angle_FAST)
    __arm_cp.0_12                            0x0000329c   Number         4  my_task.o(.text.follow_angle_FAST)
    __arm_cp.0_13                            0x000032a0   Number         4  my_task.o(.text.follow_angle_FAST)
    [Anonymous Symbol]                       0x000032a4   Section        0  my_task.o(.text.follow_line)
    __arm_cp.2_0                             0x000033a0   Number         4  my_task.o(.text.follow_line)
    __arm_cp.2_1                             0x000033a4   Number         4  my_task.o(.text.follow_line)
    __arm_cp.2_3                             0x000033a8   Number         4  my_task.o(.text.follow_line)
    __arm_cp.2_4                             0x000033ac   Number         4  my_task.o(.text.follow_line)
    __arm_cp.2_5                             0x000033b0   Number         4  my_task.o(.text.follow_line)
    __arm_cp.2_6                             0x000033b4   Number         4  my_task.o(.text.follow_line)
    [Anonymous Symbol]                       0x000033b8   Section        0  my_task.o(.text.init_task)
    __arm_cp.1_0                             0x00003410   Number         4  my_task.o(.text.init_task)
    __arm_cp.1_1                             0x00003414   Number         4  my_task.o(.text.init_task)
    __arm_cp.1_2                             0x00003418   Number         4  my_task.o(.text.init_task)
    __arm_cp.1_3                             0x0000341c   Number         4  my_task.o(.text.init_task)
    __arm_cp.1_4                             0x00003420   Number         4  my_task.o(.text.init_task)
    __arm_cp.1_5                             0x00003424   Number         4  my_task.o(.text.init_task)
    __arm_cp.1_6                             0x00003428   Number         4  my_task.o(.text.init_task)
    __arm_cp.1_7                             0x0000342c   Number         4  my_task.o(.text.init_task)
    __arm_cp.1_8                             0x00003430   Number         4  my_task.o(.text.init_task)
    __arm_cp.1_9                             0x00003434   Number         4  my_task.o(.text.init_task)
    __arm_cp.1_10                            0x00003438   Number         4  my_task.o(.text.init_task)
    __arm_cp.1_11                            0x0000343c   Number         4  my_task.o(.text.init_task)
    [Anonymous Symbol]                       0x00003440   Section        0  main.o(.text.main)
    __arm_cp.0_0                             0x00003590   Number         4  main.o(.text.main)
    __arm_cp.0_1                             0x00003594   Number         4  main.o(.text.main)
    __arm_cp.0_2                             0x00003598   Number         4  main.o(.text.main)
    __arm_cp.0_3                             0x0000359c   Number         4  main.o(.text.main)
    __arm_cp.0_4                             0x000035a0   Number         4  main.o(.text.main)
    __arm_cp.0_5                             0x000035a4   Number         4  main.o(.text.main)
    __arm_cp.0_6                             0x000035a8   Number         4  main.o(.text.main)
    __arm_cp.0_7                             0x000035ac   Number         4  main.o(.text.main)
    [Anonymous Symbol]                       0x000035b0   Section        0  ui_.o(.text.minus_time)
    __arm_cp.12_0                            0x000035d4   Number         4  ui_.o(.text.minus_time)
    __arm_cp.12_1                            0x000035d8   Number         4  ui_.o(.text.minus_time)
    __arm_cp.12_2                            0x000035dc   Number         4  ui_.o(.text.minus_time)
    [Anonymous Symbol]                       0x000035e0   Section        0  dev_grayscale.o(.text.read_grayscale)
    __arm_cp.0_0                             0x000036bc   Number         4  dev_grayscale.o(.text.read_grayscale)
    __arm_cp.0_2                             0x000036c0   Number         4  dev_grayscale.o(.text.read_grayscale)
    __arm_cp.0_3                             0x000036c4   Number         4  dev_grayscale.o(.text.read_grayscale)
    [Anonymous Symbol]                       0x000036c8   Section        0  my_task.o(.text.task1)
    __arm_cp.5_0                             0x000037a0   Number         4  my_task.o(.text.task1)
    __arm_cp.5_1                             0x000037a4   Number         4  my_task.o(.text.task1)
    __arm_cp.5_2                             0x000037a8   Number         4  my_task.o(.text.task1)
    __arm_cp.5_3                             0x000037ac   Number         4  my_task.o(.text.task1)
    __arm_cp.5_4                             0x000037b0   Number         4  my_task.o(.text.task1)
    __arm_cp.5_5                             0x000037b4   Number         4  my_task.o(.text.task1)
    __arm_cp.5_6                             0x000037b8   Number         4  my_task.o(.text.task1)
    __arm_cp.5_7                             0x000037bc   Number         4  my_task.o(.text.task1)
    __arm_cp.5_8                             0x000037c0   Number         4  my_task.o(.text.task1)
    __arm_cp.5_9                             0x000037c4   Number         4  my_task.o(.text.task1)
    __arm_cp.5_10                            0x000037c8   Number         4  my_task.o(.text.task1)
    __arm_cp.5_11                            0x000037cc   Number         4  my_task.o(.text.task1)
    __arm_cp.5_12                            0x000037d0   Number         4  my_task.o(.text.task1)
    __arm_cp.5_13                            0x000037d4   Number         4  my_task.o(.text.task1)
    [Anonymous Symbol]                       0x000037d8   Section        0  my_task.o(.text.task2)
    __arm_cp.6_21                            0x0000380c   Number         4  my_task.o(.text.task2)
    __arm_cp.6_1                             0x00003c7c   Number         4  my_task.o(.text.task2)
    __arm_cp.6_2                             0x00003c80   Number         4  my_task.o(.text.task2)
    __arm_cp.6_3                             0x00003c84   Number         4  my_task.o(.text.task2)
    __arm_cp.6_4                             0x00003c88   Number         4  my_task.o(.text.task2)
    __arm_cp.6_5                             0x00003c8c   Number         4  my_task.o(.text.task2)
    __arm_cp.6_6                             0x00003c90   Number         4  my_task.o(.text.task2)
    __arm_cp.6_7                             0x00003c94   Number         4  my_task.o(.text.task2)
    __arm_cp.6_8                             0x00003c98   Number         4  my_task.o(.text.task2)
    __arm_cp.6_9                             0x00003c9c   Number         4  my_task.o(.text.task2)
    __arm_cp.6_10                            0x00003ca0   Number         4  my_task.o(.text.task2)
    __arm_cp.6_11                            0x00003ca4   Number         4  my_task.o(.text.task2)
    __arm_cp.6_12                            0x00003ca8   Number         4  my_task.o(.text.task2)
    __arm_cp.6_13                            0x00003cac   Number         4  my_task.o(.text.task2)
    __arm_cp.6_14                            0x00003cb0   Number         4  my_task.o(.text.task2)
    __arm_cp.6_15                            0x00003cb4   Number         4  my_task.o(.text.task2)
    __arm_cp.6_16                            0x00003cb8   Number         4  my_task.o(.text.task2)
    __arm_cp.6_17                            0x00003cbc   Number         4  my_task.o(.text.task2)
    __arm_cp.6_18                            0x00003cc0   Number         4  my_task.o(.text.task2)
    __arm_cp.6_19                            0x00003cc4   Number         4  my_task.o(.text.task2)
    [Anonymous Symbol]                       0x00003cc8   Section        0  my_task.o(.text.task3)
    __arm_cp.7_25                            0x00003d00   Number         4  my_task.o(.text.task3)
    __arm_cp.7_1                             0x00004230   Number         4  my_task.o(.text.task3)
    __arm_cp.7_2                             0x00004234   Number         4  my_task.o(.text.task3)
    __arm_cp.7_3                             0x00004238   Number         4  my_task.o(.text.task3)
    __arm_cp.7_4                             0x0000423c   Number         4  my_task.o(.text.task3)
    __arm_cp.7_6                             0x00004240   Number         4  my_task.o(.text.task3)
    __arm_cp.7_7                             0x00004244   Number         4  my_task.o(.text.task3)
    __arm_cp.7_8                             0x00004248   Number         4  my_task.o(.text.task3)
    __arm_cp.7_9                             0x0000424c   Number         4  my_task.o(.text.task3)
    __arm_cp.7_10                            0x00004250   Number         4  my_task.o(.text.task3)
    __arm_cp.7_11                            0x00004254   Number         4  my_task.o(.text.task3)
    __arm_cp.7_12                            0x00004258   Number         4  my_task.o(.text.task3)
    __arm_cp.7_13                            0x0000425c   Number         4  my_task.o(.text.task3)
    __arm_cp.7_14                            0x00004260   Number         4  my_task.o(.text.task3)
    __arm_cp.7_15                            0x00004264   Number         4  my_task.o(.text.task3)
    __arm_cp.7_16                            0x00004268   Number         4  my_task.o(.text.task3)
    __arm_cp.7_17                            0x0000426c   Number         4  my_task.o(.text.task3)
    __arm_cp.7_18                            0x00004270   Number         4  my_task.o(.text.task3)
    __arm_cp.7_19                            0x00004274   Number         4  my_task.o(.text.task3)
    __arm_cp.7_20                            0x00004278   Number         4  my_task.o(.text.task3)
    __arm_cp.7_21                            0x0000427c   Number         4  my_task.o(.text.task3)
    __arm_cp.7_22                            0x00004280   Number         4  my_task.o(.text.task3)
    __arm_cp.7_23                            0x00004284   Number         4  my_task.o(.text.task3)
    [Anonymous Symbol]                       0x00004288   Section        0  my_task.o(.text.task4)
    __arm_cp.8_20                            0x000042ec   Number         4  my_task.o(.text.task4)
    __arm_cp.8_25                            0x000042fc   Number         4  my_task.o(.text.task4)
    __arm_cp.8_1                             0x000046ac   Number         4  my_task.o(.text.task4)
    __arm_cp.8_2                             0x000046b0   Number         4  my_task.o(.text.task4)
    __arm_cp.8_3                             0x000046b4   Number         4  my_task.o(.text.task4)
    __arm_cp.8_4                             0x000046b8   Number         4  my_task.o(.text.task4)
    __arm_cp.8_5                             0x000046bc   Number         4  my_task.o(.text.task4)
    __arm_cp.8_6                             0x000046c0   Number         4  my_task.o(.text.task4)
    __arm_cp.8_7                             0x000046c4   Number         4  my_task.o(.text.task4)
    __arm_cp.8_8                             0x000046c8   Number         4  my_task.o(.text.task4)
    __arm_cp.8_9                             0x000046cc   Number         4  my_task.o(.text.task4)
    __arm_cp.8_10                            0x000046d0   Number         4  my_task.o(.text.task4)
    __arm_cp.8_11                            0x000046d4   Number         4  my_task.o(.text.task4)
    __arm_cp.8_12                            0x000046d8   Number         4  my_task.o(.text.task4)
    __arm_cp.8_13                            0x000046dc   Number         4  my_task.o(.text.task4)
    __arm_cp.8_14                            0x000046e0   Number         4  my_task.o(.text.task4)
    __arm_cp.8_15                            0x000046e4   Number         4  my_task.o(.text.task4)
    __arm_cp.8_16                            0x000046e8   Number         4  my_task.o(.text.task4)
    __arm_cp.8_17                            0x000046ec   Number         4  my_task.o(.text.task4)
    [Anonymous Symbol]                       0x000046f0   Section        0  my_task.o(.text.task5)
    __arm_cp.9_28                            0x00004754   Number         4  my_task.o(.text.task5)
    __arm_cp.9_32                            0x00004764   Number         4  my_task.o(.text.task5)
    __arm_cp.9_1                             0x00004bb4   Number         4  my_task.o(.text.task5)
    __arm_cp.9_2                             0x00004bb8   Number         4  my_task.o(.text.task5)
    __arm_cp.9_3                             0x00004bbc   Number         4  my_task.o(.text.task5)
    __arm_cp.9_4                             0x00004bc0   Number         4  my_task.o(.text.task5)
    __arm_cp.9_8                             0x00004bc4   Number         4  my_task.o(.text.task5)
    __arm_cp.9_9                             0x00004bc8   Number         4  my_task.o(.text.task5)
    __arm_cp.9_10                            0x00004bcc   Number         4  my_task.o(.text.task5)
    __arm_cp.9_11                            0x00004bd0   Number         4  my_task.o(.text.task5)
    __arm_cp.9_12                            0x00004bd4   Number         4  my_task.o(.text.task5)
    __arm_cp.9_13                            0x00004bd8   Number         4  my_task.o(.text.task5)
    __arm_cp.9_14                            0x00004bdc   Number         4  my_task.o(.text.task5)
    __arm_cp.9_15                            0x00004be0   Number         4  my_task.o(.text.task5)
    __arm_cp.9_16                            0x00004be4   Number         4  my_task.o(.text.task5)
    __arm_cp.9_17                            0x00004be8   Number         4  my_task.o(.text.task5)
    __arm_cp.9_18                            0x00004bec   Number         4  my_task.o(.text.task5)
    __arm_cp.9_19                            0x00004bf0   Number         4  my_task.o(.text.task5)
    __arm_cp.9_20                            0x00004bf4   Number         4  my_task.o(.text.task5)
    __arm_cp.9_21                            0x00004bf8   Number         4  my_task.o(.text.task5)
    __arm_cp.9_22                            0x00004bfc   Number         4  my_task.o(.text.task5)
    __arm_cp.9_23                            0x00004c00   Number         4  my_task.o(.text.task5)
    __arm_cp.9_24                            0x00004c04   Number         4  my_task.o(.text.task5)
    __arm_cp.9_25                            0x00004c08   Number         4  my_task.o(.text.task5)
    [Anonymous Symbol]                       0x00004c0c   Section        0  ui_.o(.text.task_five_init)
    __arm_cp.9_4                             0x00004c2c   Number         4  ui_.o(.text.task_five_init)
    __arm_cp.9_5                             0x00004c30   Number         4  ui_.o(.text.task_five_init)
    [Anonymous Symbol]                       0x00004c34   Section        0  ui_.o(.text.task_four_init)
    __arm_cp.8_4                             0x00004c54   Number         4  ui_.o(.text.task_four_init)
    __arm_cp.8_5                             0x00004c58   Number         4  ui_.o(.text.task_four_init)
    [Anonymous Symbol]                       0x00004c5c   Section        0  ui_.o(.text.task_one_init)
    __arm_cp.5_1                             0x00004c78   Number         4  ui_.o(.text.task_one_init)
    __arm_cp.5_3                             0x00004c7c   Number         4  ui_.o(.text.task_one_init)
    [Anonymous Symbol]                       0x00004c80   Section        0  ui_.o(.text.task_three_init)
    __arm_cp.7_1                             0x00004ca0   Number         4  ui_.o(.text.task_three_init)
    __arm_cp.7_2                             0x00004ca4   Number         4  ui_.o(.text.task_three_init)
    __arm_cp.7_3                             0x00004ca8   Number         4  ui_.o(.text.task_three_init)
    __arm_cp.7_4                             0x00004cac   Number         4  ui_.o(.text.task_three_init)
    __arm_cp.7_5                             0x00004cb0   Number         4  ui_.o(.text.task_three_init)
    [Anonymous Symbol]                       0x00004cb4   Section        0  ui_.o(.text.task_two_init)
    __arm_cp.6_0                             0x00004cd0   Number         4  ui_.o(.text.task_two_init)
    __arm_cp.6_1                             0x00004cd4   Number         4  ui_.o(.text.task_two_init)
    __arm_cp.6_2                             0x00004cd8   Number         4  ui_.o(.text.task_two_init)
    __arm_cp.6_3                             0x00004cdc   Number         4  ui_.o(.text.task_two_init)
    [Anonymous Symbol]                       0x00004ce0   Section        0  ui_.o(.text.test1)
    __arm_cp.13_0                            0x00004e04   Number         4  ui_.o(.text.test1)
    __arm_cp.13_2                            0x00004e10   Number         4  ui_.o(.text.test1)
    __arm_cp.13_4                            0x00004e24   Number         4  ui_.o(.text.test1)
    __arm_cp.13_6                            0x00004e34   Number         4  ui_.o(.text.test1)
    __arm_cp.13_9                            0x00004e4c   Number         4  ui_.o(.text.test1)
    __arm_cp.13_11                           0x00004e5c   Number         4  ui_.o(.text.test1)
    __arm_cp.13_13                           0x00004e6c   Number         4  ui_.o(.text.test1)
    __arm_cp.13_15                           0x00004e7c   Number         4  ui_.o(.text.test1)
    __arm_cp.13_18                           0x00004e94   Number         4  ui_.o(.text.test1)
    __arm_cp.13_20                           0x00004ea4   Number         4  ui_.o(.text.test1)
    __arm_cp.13_23                           0x00004ec0   Number         4  ui_.o(.text.test1)
    __arm_cp.13_25                           0x00004ed0   Number         4  ui_.o(.text.test1)
    __arm_cp.13_27                           0x00004ee0   Number         4  ui_.o(.text.test1)
    __arm_cp.13_28                           0x00004ee4   Number         4  ui_.o(.text.test1)
    [Anonymous Symbol]                       0x00004ee8   Section        0  my_task.o(.text.turn_angle)
    __arm_cp.4_0                             0x00005014   Number         4  my_task.o(.text.turn_angle)
    __arm_cp.4_2                             0x00005018   Number         4  my_task.o(.text.turn_angle)
    __arm_cp.4_3                             0x0000501c   Number         4  my_task.o(.text.turn_angle)
    __arm_cp.4_4                             0x00005020   Number         4  my_task.o(.text.turn_angle)
    __arm_cp.4_5                             0x00005024   Number         4  my_task.o(.text.turn_angle)
    __arm_cp.4_6                             0x00005028   Number         4  my_task.o(.text.turn_angle)
    __arm_cp.4_7                             0x0000502c   Number         4  my_task.o(.text.turn_angle)
    __arm_cp.4_8                             0x00005030   Number         4  my_task.o(.text.turn_angle)
    __arm_cp.4_9                             0x00005034   Number         4  my_task.o(.text.turn_angle)
    __arm_cp.4_10                            0x00005038   Number         4  my_task.o(.text.turn_angle)
    __arm_cp.4_11                            0x0000503c   Number         4  my_task.o(.text.turn_angle)
    __arm_cp.4_12                            0x00005040   Number         4  my_task.o(.text.turn_angle)
    __arm_cp.4_13                            0x00005044   Number         4  my_task.o(.text.turn_angle)
    __arm_cp.4_14                            0x00005048   Number         4  my_task.o(.text.turn_angle)
    [Anonymous Symbol]                       0x0000504c   Section        0  my_task.o(.text.turn_angle_tuning)
    __arm_cp.10_0                            0x000050c4   Number         4  my_task.o(.text.turn_angle_tuning)
    __arm_cp.10_1                            0x000050c8   Number         4  my_task.o(.text.turn_angle_tuning)
    __arm_cp.10_2                            0x000050cc   Number         4  my_task.o(.text.turn_angle_tuning)
    __arm_cp.10_3                            0x000050d0   Number         4  my_task.o(.text.turn_angle_tuning)
    __arm_cp.10_4                            0x000050d4   Number         4  my_task.o(.text.turn_angle_tuning)
    __arm_cp.10_5                            0x000050d8   Number         4  my_task.o(.text.turn_angle_tuning)
    i._dgeq                                  0x000050dc   Section        0  dcmp.o(i._dgeq)
    i._dgr                                   0x000050f2   Section        0  dcmp.o(i._dgr)
    i._dleq                                  0x00005108   Section        0  dcmp.o(i._dleq)
    i._dls                                   0x00005122   Section        0  dcmp.o(i._dls)
    i._fgr                                   0x00005138   Section        0  fcmp.o(i._fgr)
    i._fls                                   0x0000514e   Section        0  fcmp.o(i._fls)
    i._is_digit                              0x00005164   Section        0  __printf_wp.o(i._is_digit)
    x$fpl$dgeqf                              0x00005174   Section      100  dgef.o(x$fpl$dgeqf)
    x$fpl$dleqf                              0x000051d8   Section      100  dlef.o(x$fpl$dleqf)
    x$fpl$fadd                               0x0000523c   Section      140  faddsub.o(x$fpl$fadd)
    _fadd1                                   0x00005249   Thumb Code     0  faddsub.o(x$fpl$fadd)
    x$fpl$fgeqf                              0x000052c8   Section       84  fgef.o(x$fpl$fgeqf)
    x$fpl$fleqf                              0x0000531c   Section       84  flef.o(x$fpl$fleqf)
    x$fpl$fmul                               0x00005370   Section      176  fmul.o(x$fpl$fmul)
    x$fpl$fsub                               0x00005420   Section      208  faddsub.o(x$fpl$fsub)
    _fsub1                                   0x0000542d   Thumb Code     0  faddsub.o(x$fpl$fsub)
    maptable                                 0x000054f0   Data          17  __printf_flags_ss_wp.o(.constdata)
    .constdata                               0x000054f0   Section       17  __printf_flags_ss_wp.o(.constdata)
    x$fpl$usenofp                            0x000054f0   Section        0  usenofp.o(x$fpl$usenofp)
    ddiv_reciptbl                            0x00005501   Data         128  ddiv.o(.constdata)
    .constdata                               0x00005501   Section      128  ddiv.o(.constdata)
    gI2C0ClockConfig                         0x000057a9   Data           2  ti_msp_dl_config.o(.rodata.gI2C0ClockConfig)
    [Anonymous Symbol]                       0x000057a9   Section        0  ti_msp_dl_config.o(.rodata.gI2C0ClockConfig)
    gPWM_Motor_LeftClockConfig               0x000057ab   Data           3  ti_msp_dl_config.o(.rodata.gPWM_Motor_LeftClockConfig)
    [Anonymous Symbol]                       0x000057ab   Section        0  ti_msp_dl_config.o(.rodata.gPWM_Motor_LeftClockConfig)
    gPWM_Motor_LeftConfig                    0x000057b0   Data           8  ti_msp_dl_config.o(.rodata.gPWM_Motor_LeftConfig)
    [Anonymous Symbol]                       0x000057b0   Section        0  ti_msp_dl_config.o(.rodata.gPWM_Motor_LeftConfig)
    gPWM_Motor_RightClockConfig              0x000057b8   Data           3  ti_msp_dl_config.o(.rodata.gPWM_Motor_RightClockConfig)
    [Anonymous Symbol]                       0x000057b8   Section        0  ti_msp_dl_config.o(.rodata.gPWM_Motor_RightClockConfig)
    gPWM_Motor_RightConfig                   0x000057bc   Data           8  ti_msp_dl_config.o(.rodata.gPWM_Motor_RightConfig)
    [Anonymous Symbol]                       0x000057bc   Section        0  ti_msp_dl_config.o(.rodata.gPWM_Motor_RightConfig)
    gTIMER_0ClockConfig                      0x000057c4   Data           3  ti_msp_dl_config.o(.rodata.gTIMER_0ClockConfig)
    [Anonymous Symbol]                       0x000057c4   Section        0  ti_msp_dl_config.o(.rodata.gTIMER_0ClockConfig)
    gTIMER_0TimerConfig                      0x000057c8   Data          20  ti_msp_dl_config.o(.rodata.gTIMER_0TimerConfig)
    [Anonymous Symbol]                       0x000057c8   Section        0  ti_msp_dl_config.o(.rodata.gTIMER_0TimerConfig)
    gUART2ClockConfig                        0x000057dc   Data           2  ti_msp_dl_config.o(.rodata.gUART2ClockConfig)
    [Anonymous Symbol]                       0x000057dc   Section        0  ti_msp_dl_config.o(.rodata.gUART2ClockConfig)
    gUART2Config                             0x000057de   Data          10  ti_msp_dl_config.o(.rodata.gUART2Config)
    [Anonymous Symbol]                       0x000057de   Section        0  ti_msp_dl_config.o(.rodata.gUART2Config)
    [Anonymous Symbol]                       0x000057e8   Section        0  ui_.o(.rodata.str1.1)
    .bss                                     0x20200168   Section       96  libspace.o(.bss)
    CCR                                      0x20200200   Data          16  my_task.o(.bss.CCR)
    [Anonymous Symbol]                       0x20200200   Section        0  my_task.o(.bss.CCR)
    DEV_CAR_Set_Speed.CCR_.0                 0x20200210   Data           4  dev_car.o(.bss.DEV_CAR_Set_Speed.CCR_.0)
    [Anonymous Symbol]                       0x20200210   Section        0  dev_car.o(.bss.DEV_CAR_Set_Speed.CCR_.0)
    DEV_CAR_Set_Speed.CCR_.1                 0x20200214   Data           4  dev_car.o(.bss.DEV_CAR_Set_Speed.CCR_.1)
    [Anonymous Symbol]                       0x20200214   Section        0  dev_car.o(.bss.DEV_CAR_Set_Speed.CCR_.1)
    DEV_CAR_Set_Speed.CCR_.2                 0x20200218   Data           4  dev_car.o(.bss.DEV_CAR_Set_Speed.CCR_.2)
    [Anonymous Symbol]                       0x20200218   Section        0  dev_car.o(.bss.DEV_CAR_Set_Speed.CCR_.2)
    DEV_CAR_Set_Speed.CCR_.3                 0x2020021c   Data           4  dev_car.o(.bss.DEV_CAR_Set_Speed.CCR_.3)
    [Anonymous Symbol]                       0x2020021c   Section        0  dev_car.o(.bss.DEV_CAR_Set_Speed.CCR_.3)
    add_time.str                             0x20200660   Data          20  ui_.o(.bss.add_time.str)
    [Anonymous Symbol]                       0x20200660   Section        0  ui_.o(.bss.add_time.str)
    follow_line.MAX_CCR                      0x20200688   Data           8  my_task.o(.bss.follow_line.MAX_CCR)
    [Anonymous Symbol]                       0x20200688   Section        0  my_task.o(.bss.follow_line.MAX_CCR)
    minus_time.str                           0x202007ca   Data          20  ui_.o(.bss.minus_time.str)
    [Anonymous Symbol]                       0x202007ca   Section        0  ui_.o(.bss.minus_time.str)
    task2.count_time                         0x202008c5   Data           1  my_task.o(.bss.task2.count_time)
    [Anonymous Symbol]                       0x202008c5   Section        0  my_task.o(.bss.task2.count_time)
    task2.last_count_time                    0x202008c8   Data           4  my_task.o(.bss.task2.last_count_time)
    [Anonymous Symbol]                       0x202008c8   Section        0  my_task.o(.bss.task2.last_count_time)
    task3.count_time                         0x202008cd   Data           1  my_task.o(.bss.task3.count_time)
    [Anonymous Symbol]                       0x202008cd   Section        0  my_task.o(.bss.task3.count_time)
    task3.last_count_time                    0x202008ce   Data           1  my_task.o(.bss.task3.last_count_time)
    [Anonymous Symbol]                       0x202008ce   Section        0  my_task.o(.bss.task3.last_count_time)
    task3.turn_count                         0x202008cf   Data           1  my_task.o(.bss.task3.turn_count)
    [Anonymous Symbol]                       0x202008cf   Section        0  my_task.o(.bss.task3.turn_count)
    task4.count_time                         0x202008d1   Data           1  my_task.o(.bss.task4.count_time)
    [Anonymous Symbol]                       0x202008d1   Section        0  my_task.o(.bss.task4.count_time)
    task4.last_count_time                    0x202008d2   Data           1  my_task.o(.bss.task4.last_count_time)
    [Anonymous Symbol]                       0x202008d2   Section        0  my_task.o(.bss.task4.last_count_time)
    task4.turn_count                         0x202008d3   Data           1  my_task.o(.bss.task4.turn_count)
    [Anonymous Symbol]                       0x202008d3   Section        0  my_task.o(.bss.task4.turn_count)
    task5.count_time                         0x202008d5   Data           1  my_task.o(.bss.task5.count_time)
    [Anonymous Symbol]                       0x202008d5   Section        0  my_task.o(.bss.task5.count_time)
    task5.last_count_time                    0x202008d6   Data           1  my_task.o(.bss.task5.last_count_time)
    [Anonymous Symbol]                       0x202008d6   Section        0  my_task.o(.bss.task5.last_count_time)
    task5.turn_count                         0x202008d7   Data           1  my_task.o(.bss.task5.turn_count)
    [Anonymous Symbol]                       0x202008d7   Section        0  my_task.o(.bss.task5.turn_count)
    turn_angle.I_item                        0x202008e8   Data           4  my_task.o(.bss.turn_angle.I_item)
    [Anonymous Symbol]                       0x202008e8   Section        0  my_task.o(.bss.turn_angle.I_item)
    turn_angle_tuning.count                  0x202008ec   Data           4  my_task.o(.bss.turn_angle_tuning.count)
    [Anonymous Symbol]                       0x202008ec   Section        0  my_task.o(.bss.turn_angle_tuning.count)
    Heap_Mem                                 0x202008f0   Data        2048  startup_mspm0g350x_uvision.o(HEAP)
    HEAP                                     0x202008f0   Section     2048  startup_mspm0g350x_uvision.o(HEAP)
    Stack_Mem                                0x202010f0   Data        2048  startup_mspm0g350x_uvision.o(STACK)
    STACK                                    0x202010f0   Section     2048  startup_mspm0g350x_uvision.o(STACK)
    __initial_sp                             0x202018f0   Data           0  startup_mspm0g350x_uvision.o(STACK)

    Global Symbols

    Symbol Name                              Value     Ov Type        Size  Object(Section)

    BuildAttributes$$THM_ISAv3M$S$PE$A:L22$X:L11$S22$IEEE1$IW$~IW$USESV6$~STKCKD$USESV7$~SHL$OTIME$ROPI$IEEEJ$EBA8$UX$STANDARDLIB$REQ8$PRES8$EABIv2 0x00000000   Number         0  anon$$obj.o ABSOLUTE
    __Vectors                                0x00000000   Data           4  startup_mspm0g350x_uvision.o(RESET)
    _printf_flags                            0x00000000   Number         0  printf_stubs.o ABSOLUTE
    _printf_return_value                     0x00000000   Number         0  printf_stubs.o ABSOLUTE
    _printf_sizespec                         0x00000000   Number         0  printf_stubs.o ABSOLUTE
    _printf_widthprec                        0x00000000   Number         0  printf_stubs.o ABSOLUTE
    __ARM_exceptions_init                     - Undefined Weak Reference
    __alloca_initialize                       - Undefined Weak Reference
    __arm_preinit_                            - Undefined Weak Reference
    __arm_relocate_pie_                       - Undefined Weak Reference
    __cpp_initialize__aeabi_                  - Undefined Weak Reference
    __cxa_finalize                            - Undefined Weak Reference
    __sigvec_lookup                           - Undefined Weak Reference
    __user_heap_extent                        - Undefined Weak Reference
    _atexit_init                              - Undefined Weak Reference
    _call_atexit_fns                          - Undefined Weak Reference
    _clock_init                               - Undefined Weak Reference
    _fp_trap_init                             - Undefined Weak Reference
    _fp_trap_shutdown                         - Undefined Weak Reference
    _get_lc_collate                           - Undefined Weak Reference
    _get_lc_monetary                          - Undefined Weak Reference
    _get_lc_time                              - Undefined Weak Reference
    _getenv_init                              - Undefined Weak Reference
    _handle_redirection                       - Undefined Weak Reference
    _initio                                   - Undefined Weak Reference
    _mutex_acquire                            - Undefined Weak Reference
    _mutex_free                               - Undefined Weak Reference
    _mutex_release                            - Undefined Weak Reference
    _printf_mbtowc                            - Undefined Weak Reference
    _printf_wc                                - Undefined Weak Reference
    _rand_init                                - Undefined Weak Reference
    _signal_finish                            - Undefined Weak Reference
    _signal_init                              - Undefined Weak Reference
    _terminateio                              - Undefined Weak Reference
    __Vectors_End                            0x000000c0   Data           0  startup_mspm0g350x_uvision.o(RESET)
    __Vectors_Size                           0x000000c0   Number         0  startup_mspm0g350x_uvision.o ABSOLUTE
    __main                                   0x000000c1   Thumb Code     8  __main.o(!!!main)
    __scatterload                            0x000000c9   Thumb Code     0  __scatter.o(!!!scatter)
    __scatterload_rt2                        0x000000c9   Thumb Code    74  __scatter.o(!!!scatter)
    __scatterload_rt2_thumb_only             0x000000c9   Thumb Code     0  __scatter.o(!!!scatter)
    __scatterload_loop                       0x000000d3   Thumb Code     0  __scatter.o(!!!scatter)
    __scatterload_null                       0x00000121   Thumb Code     2  __scatter.o(!!handler_null)
    __scatterload_zeroinit                   0x00000129   Thumb Code    28  __scatter_zi.o(!!handler_zi)
    _printf_percent                          0x00000145   Thumb Code     0  _printf_percent.o(.ARM.Collect$$_printf_percent$$00000000)
    _printf_d                                0x00000147   Thumb Code     0  _printf_d.o(.ARM.Collect$$_printf_percent$$00000009)
    _printf_percent_end                      0x00000151   Thumb Code     0  _printf_percent_end.o(.ARM.Collect$$_printf_percent$$00000017)
    __rt_lib_init                            0x00000155   Thumb Code     0  libinit.o(.ARM.Collect$$libinit$$00000000)
    __rt_lib_init_fp_1                       0x00000157   Thumb Code     0  libinit2.o(.ARM.Collect$$libinit$$00000002)
    __rt_lib_init_heap_2                     0x00000157   Thumb Code     0  libinit2.o(.ARM.Collect$$libinit$$00000007)
    __rt_lib_init_preinit_1                  0x00000157   Thumb Code     0  libinit2.o(.ARM.Collect$$libinit$$00000006)
    __rt_lib_init_relocate_pie_1             0x00000157   Thumb Code     0  libinit2.o(.ARM.Collect$$libinit$$00000004)
    __rt_lib_init_alloca_1                   0x0000015f   Thumb Code     0  libinit2.o(.ARM.Collect$$libinit$$00000030)
    __rt_lib_init_argv_1                     0x0000015f   Thumb Code     0  libinit2.o(.ARM.Collect$$libinit$$0000002E)
    __rt_lib_init_atexit_1                   0x0000015f   Thumb Code     0  libinit2.o(.ARM.Collect$$libinit$$0000001D)
    __rt_lib_init_clock_1                    0x0000015f   Thumb Code     0  libinit2.o(.ARM.Collect$$libinit$$00000023)
    __rt_lib_init_cpp_1                      0x0000015f   Thumb Code     0  libinit2.o(.ARM.Collect$$libinit$$00000034)
    __rt_lib_init_exceptions_1               0x0000015f   Thumb Code     0  libinit2.o(.ARM.Collect$$libinit$$00000032)
    __rt_lib_init_fp_trap_1                  0x0000015f   Thumb Code     0  libinit2.o(.ARM.Collect$$libinit$$00000021)
    __rt_lib_init_getenv_1                   0x0000015f   Thumb Code     0  libinit2.o(.ARM.Collect$$libinit$$00000025)
    __rt_lib_init_heap_1                     0x0000015f   Thumb Code     0  libinit2.o(.ARM.Collect$$libinit$$0000000C)
    __rt_lib_init_lc_collate_1               0x0000015f   Thumb Code     0  libinit2.o(.ARM.Collect$$libinit$$00000013)
    __rt_lib_init_lc_ctype_1                 0x0000015f   Thumb Code     0  libinit2.o(.ARM.Collect$$libinit$$00000015)
    __rt_lib_init_lc_monetary_1              0x0000015f   Thumb Code     0  libinit2.o(.ARM.Collect$$libinit$$00000017)
    __rt_lib_init_lc_numeric_1               0x0000015f   Thumb Code     0  libinit2.o(.ARM.Collect$$libinit$$00000019)
    __rt_lib_init_lc_time_1                  0x0000015f   Thumb Code     0  libinit2.o(.ARM.Collect$$libinit$$0000001B)
    __rt_lib_init_rand_1                     0x0000015f   Thumb Code     0  libinit2.o(.ARM.Collect$$libinit$$00000010)
    __rt_lib_init_return                     0x0000015f   Thumb Code     0  libinit2.o(.ARM.Collect$$libinit$$00000035)
    __rt_lib_init_signal_1                   0x0000015f   Thumb Code     0  libinit2.o(.ARM.Collect$$libinit$$0000001F)
    __rt_lib_init_stdio_1                    0x0000015f   Thumb Code     0  libinit2.o(.ARM.Collect$$libinit$$00000027)
    __rt_lib_init_user_alloc_1               0x0000015f   Thumb Code     0  libinit2.o(.ARM.Collect$$libinit$$0000000E)
    __rt_lib_shutdown                        0x00000161   Thumb Code     0  libshutdown.o(.ARM.Collect$$libshutdown$$00000000)
    __rt_lib_shutdown_cpp_1                  0x00000163   Thumb Code     0  libshutdown2.o(.ARM.Collect$$libshutdown$$00000002)
    __rt_lib_shutdown_fp_trap_1              0x00000163   Thumb Code     0  libshutdown2.o(.ARM.Collect$$libshutdown$$00000007)
    __rt_lib_shutdown_heap_1                 0x00000163   Thumb Code     0  libshutdown2.o(.ARM.Collect$$libshutdown$$0000000F)
    __rt_lib_shutdown_return                 0x00000163   Thumb Code     0  libshutdown2.o(.ARM.Collect$$libshutdown$$00000010)
    __rt_lib_shutdown_signal_1               0x00000163   Thumb Code     0  libshutdown2.o(.ARM.Collect$$libshutdown$$0000000A)
    __rt_lib_shutdown_stdio_1                0x00000163   Thumb Code     0  libshutdown2.o(.ARM.Collect$$libshutdown$$00000004)
    __rt_lib_shutdown_user_alloc_1           0x00000163   Thumb Code     0  libshutdown2.o(.ARM.Collect$$libshutdown$$0000000C)
    __rt_entry                               0x00000165   Thumb Code     0  __rtentry.o(.ARM.Collect$$rtentry$$00000000)
    __rt_entry_presh_1                       0x00000165   Thumb Code     0  __rtentry2.o(.ARM.Collect$$rtentry$$00000002)
    __rt_entry_sh                            0x00000165   Thumb Code     0  __rtentry4.o(.ARM.Collect$$rtentry$$00000004)
    __rt_entry_li                            0x0000016b   Thumb Code     0  __rtentry2.o(.ARM.Collect$$rtentry$$0000000A)
    __rt_entry_postsh_1                      0x0000016b   Thumb Code     0  __rtentry2.o(.ARM.Collect$$rtentry$$00000009)
    __rt_entry_main                          0x0000016f   Thumb Code     0  __rtentry2.o(.ARM.Collect$$rtentry$$0000000D)
    __rt_entry_postli_1                      0x0000016f   Thumb Code     0  __rtentry2.o(.ARM.Collect$$rtentry$$0000000C)
    __rt_exit                                0x00000177   Thumb Code     0  rtexit.o(.ARM.Collect$$rtexit$$00000000)
    __rt_exit_ls                             0x00000179   Thumb Code     0  rtexit2.o(.ARM.Collect$$rtexit$$00000003)
    __rt_exit_prels_1                        0x00000179   Thumb Code     0  rtexit2.o(.ARM.Collect$$rtexit$$00000002)
    __rt_exit_exit                           0x0000017d   Thumb Code     0  rtexit2.o(.ARM.Collect$$rtexit$$00000004)
    Reset_Handler                            0x00000185   Thumb Code     4  startup_mspm0g350x_uvision.o(.text)
    NMI_Handler                              0x00000189   Thumb Code     2  startup_mspm0g350x_uvision.o(.text)
    HardFault_Handler                        0x0000018b   Thumb Code     2  startup_mspm0g350x_uvision.o(.text)
    SVC_Handler                              0x0000018d   Thumb Code     2  startup_mspm0g350x_uvision.o(.text)
    PendSV_Handler                           0x0000018f   Thumb Code     2  startup_mspm0g350x_uvision.o(.text)
    ADC0_IRQHandler                          0x00000193   Thumb Code     0  startup_mspm0g350x_uvision.o(.text)
    ADC1_IRQHandler                          0x00000193   Thumb Code     0  startup_mspm0g350x_uvision.o(.text)
    AES_IRQHandler                           0x00000193   Thumb Code     0  startup_mspm0g350x_uvision.o(.text)
    CANFD0_IRQHandler                        0x00000193   Thumb Code     0  startup_mspm0g350x_uvision.o(.text)
    DAC0_IRQHandler                          0x00000193   Thumb Code     0  startup_mspm0g350x_uvision.o(.text)
    DMA_IRQHandler                           0x00000193   Thumb Code     0  startup_mspm0g350x_uvision.o(.text)
    Default_Handler                          0x00000193   Thumb Code     2  startup_mspm0g350x_uvision.o(.text)
    GROUP0_IRQHandler                        0x00000193   Thumb Code     0  startup_mspm0g350x_uvision.o(.text)
    I2C1_IRQHandler                          0x00000193   Thumb Code     0  startup_mspm0g350x_uvision.o(.text)
    RTC_IRQHandler                           0x00000193   Thumb Code     0  startup_mspm0g350x_uvision.o(.text)
    SPI0_IRQHandler                          0x00000193   Thumb Code     0  startup_mspm0g350x_uvision.o(.text)
    SPI1_IRQHandler                          0x00000193   Thumb Code     0  startup_mspm0g350x_uvision.o(.text)
    TIMA0_IRQHandler                         0x00000193   Thumb Code     0  startup_mspm0g350x_uvision.o(.text)
    TIMA1_IRQHandler                         0x00000193   Thumb Code     0  startup_mspm0g350x_uvision.o(.text)
    TIMG12_IRQHandler                        0x00000193   Thumb Code     0  startup_mspm0g350x_uvision.o(.text)
    TIMG6_IRQHandler                         0x00000193   Thumb Code     0  startup_mspm0g350x_uvision.o(.text)
    TIMG7_IRQHandler                         0x00000193   Thumb Code     0  startup_mspm0g350x_uvision.o(.text)
    TIMG8_IRQHandler                         0x00000193   Thumb Code     0  startup_mspm0g350x_uvision.o(.text)
    UART0_IRQHandler                         0x00000193   Thumb Code     0  startup_mspm0g350x_uvision.o(.text)
    UART1_IRQHandler                         0x00000193   Thumb Code     0  startup_mspm0g350x_uvision.o(.text)
    UART3_IRQHandler                         0x00000193   Thumb Code     0  startup_mspm0g350x_uvision.o(.text)
    __user_initial_stackheap                 0x00000195   Thumb Code    10  startup_mspm0g350x_uvision.o(.text)
    malloc                                   0x000001b5   Thumb Code    98  h1_alloc.o(.text)
    free                                     0x00000217   Thumb Code    76  h1_free.o(.text)
    __2sprintf                               0x00000265   Thumb Code    40  __2sprintf.o(.text)
    _printf_int_dec                          0x00000291   Thumb Code    90  _printf_dec.o(.text)
    __printf                                 0x000002fd   Thumb Code   386  __printf_flags_ss_wp.o(.text)
    __aeabi_memset4                          0x00000485   Thumb Code    18  aeabi_memset4.o(.text)
    __aeabi_memset8                          0x00000485   Thumb Code     0  aeabi_memset4.o(.text)
    _memset_w                                0x00000497   Thumb Code    26  rt_memclr.o(.text)
    _memset                                  0x000004b1   Thumb Code    30  rt_memclr.o(.text)
    __aeabi_memclr                           0x000004cf   Thumb Code     4  rt_memclr.o(.text)
    __rt_memclr                              0x000004cf   Thumb Code     0  rt_memclr.o(.text)
    __aeabi_memclr4                          0x000004d3   Thumb Code     0  rt_memclr.o(.text)
    __aeabi_memclr8                          0x000004d3   Thumb Code     0  rt_memclr.o(.text)
    __rt_memclr_w                            0x000004d3   Thumb Code     4  rt_memclr.o(.text)
    __use_two_region_memory                  0x000004d7   Thumb Code     2  heapauxi.o(.text)
    __rt_heap_escrow                         0x000004d9   Thumb Code     2  heapauxi.o(.text)
    __rt_heap_expand                         0x000004db   Thumb Code     2  heapauxi.o(.text)
    __aeabi_dadd                             0x000007d5   Thumb Code     0  daddsub.o(.text)
    _dadd                                    0x000007d5   Thumb Code    26  daddsub.o(.text)
    __aeabi_dsub                             0x000007ef   Thumb Code     0  daddsub.o(.text)
    _dsub                                    0x000007ef   Thumb Code    22  daddsub.o(.text)
    __aeabi_drsub                            0x00000805   Thumb Code     0  daddsub.o(.text)
    _drsb                                    0x00000805   Thumb Code    28  daddsub.o(.text)
    __aeabi_ddiv                             0x00000835   Thumb Code     0  ddiv.o(.text)
    _ddiv                                    0x00000835   Thumb Code  1072  ddiv.o(.text)
    _drdiv                                   0x00000c65   Thumb Code    20  ddiv.o(.text)
    __aeabi_d2iz                             0x00000c7d   Thumb Code     0  dfixi.o(.text)
    _dfix                                    0x00000c7d   Thumb Code    98  dfixi.o(.text)
    __aeabi_i2d_normalise                    0x00000ce9   Thumb Code    66  dflti.o(.text)
    __aeabi_i2d                              0x00000d2b   Thumb Code    16  dflti.o(.text)
    _dflt                                    0x00000d2b   Thumb Code     0  dflti.o(.text)
    __aeabi_ui2d                             0x00000d3b   Thumb Code     6  dflti.o(.text)
    _dfltu                                   0x00000d3b   Thumb Code     0  dflti.o(.text)
    __aeabi_dmul                             0x00000d41   Thumb Code     0  dmul.o(.text)
    _dmul                                    0x00000d41   Thumb Code   558  dmul.o(.text)
    __aeabi_f2iz                             0x00000f89   Thumb Code     0  ffixi.o(.text)
    _ffix                                    0x00000f89   Thumb Code    76  ffixi.o(.text)
    __aeabi_i2f_normalise                    0x00000fd5   Thumb Code    72  fflti.o(.text)
    __aeabi_i2f                              0x0000101d   Thumb Code    16  fflti.o(.text)
    _fflt                                    0x0000101d   Thumb Code     0  fflti.o(.text)
    __aeabi_ui2f                             0x0000102d   Thumb Code     6  fflti.o(.text)
    _ffltu                                   0x0000102d   Thumb Code     0  fflti.o(.text)
    __rt_heap_descriptor                     0x00001035   Thumb Code     8  rt_heap_descriptor_intlibspace.o(.text)
    __use_no_heap                            0x0000103d   Thumb Code     2  hguard.o(.text)
    __heap$guard                             0x0000103f   Thumb Code     2  hguard.o(.text)
    _terminate_user_alloc                    0x00001041   Thumb Code     2  init_alloc.o(.text)
    _init_user_alloc                         0x00001043   Thumb Code     2  init_alloc.o(.text)
    __Heap_Full                              0x00001045   Thumb Code    32  init_alloc.o(.text)
    __Heap_Broken                            0x00001065   Thumb Code    10  init_alloc.o(.text)
    _init_alloc                              0x0000106f   Thumb Code    90  init_alloc.o(.text)
    __Heap_Initialize                        0x000010c9   Thumb Code     8  h1_init.o(.text)
    __Heap_DescSize                          0x000010d1   Thumb Code     4  h1_init.o(.text)
    _printf_int_common                       0x000010d5   Thumb Code   176  _printf_intcommon.o(.text)
    _printf_char_common                      0x0000118f   Thumb Code    32  _printf_char_common.o(.text)
    _sputc                                   0x000011b5   Thumb Code    10  _sputc.o(.text)
    __rt_udiv10                              0x000011bf   Thumb Code    40  rtudiv10.o(.text)
    __user_libspace                          0x000011e9   Thumb Code     8  libspace.o(.text)
    __user_perproc_libspace                  0x000011e9   Thumb Code     0  libspace.o(.text)
    __user_perthread_libspace                0x000011e9   Thumb Code     0  libspace.o(.text)
    __Heap_ProvideMemory                     0x000011f1   Thumb Code    52  h1_extend.o(.text)
    _maybe_terminate_alloc                   0x000011f1   Thumb Code     0  maybetermalloc1.o(.text)
    __rt_SIGRTMEM                            0x00001225   Thumb Code    12  defsig_rtmem_outer.o(.text)
    __fpl_dcmp_InfNaN                        0x00001231   Thumb Code   154  dcmpin.o(.text)
    __fpl_fcmp_InfNaN                        0x000012d1   Thumb Code    96  fcmpin.o(.text)
    __I$use$semihosting                      0x00001335   Thumb Code     0  use_no_semi.o(.text)
    __use_no_semihosting_swi                 0x00001335   Thumb Code     2  use_no_semi.o(.text)
    __semihosting_library_function           0x00001337   Thumb Code     0  indicate_semi.o(.text)
    __user_setup_stackheap                   0x00001337   Thumb Code    62  sys_stackheap_outer.o(.text)
    exit                                     0x00001375   Thumb Code    16  exit.o(.text)
    __sig_exit                               0x00001385   Thumb Code    12  defsig_exit.o(.text)
    __rt_SIGRTMEM_inner                      0x00001391   Thumb Code    22  defsig_rtmem_inner.o(.text)
    __fpl_cmpreturn                          0x000013e1   Thumb Code    46  cmpret.o(.text)
    __fpl_dcheck_NaN2                        0x00001411   Thumb Code    14  dnan2.o(.text)
    __fpl_fcheck_NaN2                        0x00001425   Thumb Code    10  fnan2.o(.text)
    _sys_exit                                0x00001435   Thumb Code     8  sys_exit.o(.text)
    __default_signal_display                 0x00001441   Thumb Code    52  defsig_general.o(.text)
    __fpl_return_NaN                         0x00001475   Thumb Code    94  retnan.o(.text)
    _ttywrch                                 0x000014d3   Thumb Code    12  sys_wrch.o(.text)
    __decompress                             0x000014df   Thumb Code     0  __dczerorl.o(.text)
    __decompress0                            0x000014df   Thumb Code    58  __dczerorl.o(.text)
    BUFF_pop_by_Protocol                     0x00001519   Thumb Code   478  buffer.o(.text.BUFF_pop_by_Protocol)
    Car_Set_Direction                        0x000016f9   Thumb Code   340  dev_car.o(.text.Car_Set_Direction)
    ClearScreenBuffer                        0x0000184d   Thumb Code    16  oled_buffer.o(.text.ClearScreenBuffer)
    DEV_CAR_Init                             0x00001861   Thumb Code    40  dev_car.o(.text.DEV_CAR_Init)
    DEV_CAR_Set_Speed                        0x00001889   Thumb Code   280  dev_car.o(.text.DEV_CAR_Set_Speed)
    DL_Common_delayCycles                    0x000019bd   Thumb Code    20  dl_common.o(.text.DL_Common_delayCycles)
    DL_I2C_fillControllerTXFIFO              0x00001a49   Thumb Code    86  dl_i2c.o(.text.DL_I2C_fillControllerTXFIFO)
    DL_I2C_flushControllerTXFIFO             0x00001a9f   Thumb Code    38  dl_i2c.o(.text.DL_I2C_flushControllerTXFIFO)
    DL_I2C_setClockConfig                    0x00001b01   Thumb Code    52  dl_i2c.o(.text.DL_I2C_setClockConfig)
    DL_TimerA_initPWMMode                    0x00001b79   Thumb Code   240  dl_timer.o(.text.DL_TimerA_initPWMMode)
    DL_Timer_initPWMMode                     0x00001c69   Thumb Code   280  dl_timer.o(.text.DL_Timer_initPWMMode)
    DL_Timer_initTimerMode                   0x00001d81   Thumb Code   148  dl_timer.o(.text.DL_Timer_initTimerMode)
    DL_Timer_setCaptCompUpdateMethod         0x00001e15   Thumb Code    52  dl_timer.o(.text.DL_Timer_setCaptCompUpdateMethod)
    DL_Timer_setCaptureCompareAction         0x00001e49   Thumb Code    56  dl_timer.o(.text.DL_Timer_setCaptureCompareAction)
    DL_Timer_setCaptureCompareCtl            0x00001e81   Thumb Code    64  dl_timer.o(.text.DL_Timer_setCaptureCompareCtl)
    DL_Timer_setCaptureCompareInput          0x00001ec1   Thumb Code    56  dl_timer.o(.text.DL_Timer_setCaptureCompareInput)
    DL_Timer_setCaptureCompareOutCtl         0x00001ef9   Thumb Code    60  dl_timer.o(.text.DL_Timer_setCaptureCompareOutCtl)
    DL_Timer_setCaptureCompareValue          0x00001f35   Thumb Code    44  dl_timer.o(.text.DL_Timer_setCaptureCompareValue)
    DL_Timer_setClockConfig                  0x00001f61   Thumb Code    48  dl_timer.o(.text.DL_Timer_setClockConfig)
    DL_UART_init                             0x00001fe1   Thumb Code    88  dl_uart.o(.text.DL_UART_init)
    DL_UART_setClockConfig                   0x00002039   Thumb Code    36  dl_uart.o(.text.DL_UART_setClockConfig)
    DrawChar                                 0x0000205d   Thumb Code    96  oled_draw.o(.text.DrawChar)
    DrawString                               0x000020c1   Thumb Code    60  oled_draw.o(.text.DrawString)
    EXTI_Init                                0x000020fd   Thumb Code    12  exti.o(.text.EXTI_Init)
    GROUP1_IRQHandler                        0x0000210d   Thumb Code   384  exti.o(.text.GROUP1_IRQHandler)
    I2C0_IRQHandler                          0x000022a9   Thumb Code    28  dev_i2c.o(.text.I2C0_IRQHandler)
    I2C_WriteArray2Register_With_Blocking    0x000022c9   Thumb Code   480  dev_i2c.o(.text.I2C_WriteArray2Register_With_Blocking)
    I2C_WriteArray_With_Blocking             0x000024ad   Thumb Code   276  dev_i2c.o(.text.I2C_WriteArray_With_Blocking)
    I2C__init__                              0x000025d9   Thumb Code    44  dev_i2c.o(.text.I2C__init__)
    Iinitial_BUFF                            0x0000260d   Thumb Code    30  buffer.o(.text.Iinitial_BUFF)
    LED_OFF                                  0x0000262d   Thumb Code    16  led.o(.text.LED_OFF)
    LED_ON                                   0x0000263d   Thumb Code    20  led.o(.text.LED_ON)
    OLED_CLS                                 0x00002659   Thumb Code   104  oled.o(.text.OLED_CLS)
    OLED_FILL                                0x000026c1   Thumb Code    96  oled.o(.text.OLED_FILL)
    OLED_Init                                0x00002721   Thumb Code   464  oled.o(.text.OLED_Init)
    PID_Initialize                           0x000028f5   Thumb Code    30  pid.o(.text.PID_Initialize)
    PID_Realize                              0x00002913   Thumb Code   126  pid.o(.text.PID_Realize)
    SYSCFG_DL_GPIO_init                      0x00002991   Thumb Code   252  ti_msp_dl_config.o(.text.SYSCFG_DL_GPIO_init)
    SYSCFG_DL_I2C0_init                      0x00002ab9   Thumb Code   112  ti_msp_dl_config.o(.text.SYSCFG_DL_I2C0_init)
    SYSCFG_DL_PWM_Motor_Left_init            0x00002b3d   Thumb Code   144  ti_msp_dl_config.o(.text.SYSCFG_DL_PWM_Motor_Left_init)
    SYSCFG_DL_PWM_Motor_Right_init           0x00002bdd   Thumb Code   108  ti_msp_dl_config.o(.text.SYSCFG_DL_PWM_Motor_Right_init)
    SYSCFG_DL_SYSCTL_init                    0x00002c5d   Thumb Code    84  ti_msp_dl_config.o(.text.SYSCFG_DL_SYSCTL_init)
    SYSCFG_DL_SYSTICK_init                   0x00002cbd   Thumb Code    36  ti_msp_dl_config.o(.text.SYSCFG_DL_SYSTICK_init)
    SYSCFG_DL_TIMER_0_init                   0x00002ced   Thumb Code    52  ti_msp_dl_config.o(.text.SYSCFG_DL_TIMER_0_init)
    SYSCFG_DL_UART2_init                     0x00002d39   Thumb Code   100  ti_msp_dl_config.o(.text.SYSCFG_DL_UART2_init)
    SYSCFG_DL_init                           0x00002db9   Thumb Code    56  ti_msp_dl_config.o(.text.SYSCFG_DL_init)
    SYSCFG_DL_initPower                      0x00002df9   Thumb Code    60  ti_msp_dl_config.o(.text.SYSCFG_DL_initPower)
    SysTick_Handler                          0x00002e59   Thumb Code    32  delay.o(.text.SysTick_Handler)
    TIMG0_IRQHandler                         0x00002e7d   Thumb Code    36  time.o(.text.TIMG0_IRQHandler)
    UART2_IRQHandler                         0x00002ea9   Thumb Code    36  uart.o(.text.UART2_IRQHandler)
    UART_NVIC_Init                           0x00002ed9   Thumb Code    24  uart.o(.text.UART_NVIC_Init)
    UI_back                                  0x00002efd   Thumb Code    32  ui_.o(.text.UI_back)
    UI_enter                                 0x00002f1d   Thumb Code    44  ui_.o(.text.UI_enter)
    UI_next                                  0x00002f49   Thumb Code    48  ui_.o(.text.UI_next)
    UI_prev                                  0x00002f79   Thumb Code    48  ui_.o(.text.UI_prev)
    UI_updata                                0x00002fad   Thumb Code    96  ui_.o(.text.UI_updata)
    UpdateScreenDisplay                      0x00003015   Thumb Code    12  oled_buffer.o(.text.UpdateScreenDisplay)
    WriteByteBuffer                          0x00003021   Thumb Code    12  oled_buffer.o(.text.WriteByteBuffer)
    Write_BUFF                               0x00003031   Thumb Code    72  buffer.o(.text.Write_BUFF)
    add_time                                 0x00003079   Thumb Code    36  ui_.o(.text.add_time)
    angle_tuning_init                        0x000030a9   Thumb Code    16  ui_.o(.text.angle_tuning_init)
    bsp_GetKey                               0x000030c1   Thumb Code    32  exti.o(.text.bsp_GetKey)
    delay_ms                                 0x000030e5   Thumb Code    32  delay.o(.text.delay_ms)
    follow_angle                             0x00003109   Thumb Code   136  my_task.o(.text.follow_angle)
    follow_angle_FAST                        0x0000319d   Thumb Code   208  my_task.o(.text.follow_angle_FAST)
    follow_line                              0x000032a5   Thumb Code   252  my_task.o(.text.follow_line)
    init_task                                0x000033b9   Thumb Code    88  my_task.o(.text.init_task)
    main                                     0x00003441   Thumb Code   336  main.o(.text.main)
    minus_time                               0x000035b1   Thumb Code    36  ui_.o(.text.minus_time)
    read_grayscale                           0x000035e1   Thumb Code   220  dev_grayscale.o(.text.read_grayscale)
    task1                                    0x000036c9   Thumb Code   216  my_task.o(.text.task1)
    task2                                    0x000037d9   Thumb Code  1188  my_task.o(.text.task2)
    task3                                    0x00003cc9   Thumb Code  1384  my_task.o(.text.task3)
    task4                                    0x00004289   Thumb Code  1060  my_task.o(.text.task4)
    task5                                    0x000046f1   Thumb Code  1216  my_task.o(.text.task5)
    task_five_init                           0x00004c0d   Thumb Code    32  ui_.o(.text.task_five_init)
    task_four_init                           0x00004c35   Thumb Code    32  ui_.o(.text.task_four_init)
    task_one_init                            0x00004c5d   Thumb Code    28  ui_.o(.text.task_one_init)
    task_three_init                          0x00004c81   Thumb Code    32  ui_.o(.text.task_three_init)
    task_two_init                            0x00004cb5   Thumb Code    28  ui_.o(.text.task_two_init)
    test1                                    0x00004ce1   Thumb Code   292  ui_.o(.text.test1)
    turn_angle                               0x00004ee9   Thumb Code   300  my_task.o(.text.turn_angle)
    turn_angle_tuning                        0x0000504d   Thumb Code   120  my_task.o(.text.turn_angle_tuning)
    __aeabi_dcmpge                           0x000050dd   Thumb Code     0  dcmp.o(i._dgeq)
    _dgeq                                    0x000050dd   Thumb Code    22  dcmp.o(i._dgeq)
    __aeabi_dcmpgt                           0x000050f3   Thumb Code     0  dcmp.o(i._dgr)
    _dgr                                     0x000050f3   Thumb Code    22  dcmp.o(i._dgr)
    __aeabi_dcmple                           0x00005109   Thumb Code     0  dcmp.o(i._dleq)
    _dleq                                    0x00005109   Thumb Code    26  dcmp.o(i._dleq)
    __aeabi_dcmplt                           0x00005123   Thumb Code     0  dcmp.o(i._dls)
    _dls                                     0x00005123   Thumb Code    22  dcmp.o(i._dls)
    __aeabi_fcmpgt                           0x00005139   Thumb Code     0  fcmp.o(i._fgr)
    _fgr                                     0x00005139   Thumb Code    22  fcmp.o(i._fgr)
    __aeabi_fcmplt                           0x0000514f   Thumb Code     0  fcmp.o(i._fls)
    _fls                                     0x0000514f   Thumb Code    22  fcmp.o(i._fls)
    _is_digit                                0x00005165   Thumb Code    14  __printf_wp.o(i._is_digit)
    _dcmpge                                  0x00005175   Thumb Code    94  dgef.o(x$fpl$dgeqf)
    __aeabi_cdcmple                          0x000051d9   Thumb Code     0  dlef.o(x$fpl$dleqf)
    _dcmple                                  0x000051d9   Thumb Code    94  dlef.o(x$fpl$dleqf)
    __aeabi_fadd                             0x0000523d   Thumb Code     0  faddsub.o(x$fpl$fadd)
    _fadd                                    0x0000523d   Thumb Code   134  faddsub.o(x$fpl$fadd)
    _fcmpge                                  0x000052c9   Thumb Code    78  fgef.o(x$fpl$fgeqf)
    __aeabi_cfcmple                          0x0000531d   Thumb Code     0  flef.o(x$fpl$fleqf)
    _fcmple                                  0x0000531d   Thumb Code    78  flef.o(x$fpl$fleqf)
    __aeabi_fmul                             0x00005371   Thumb Code     0  fmul.o(x$fpl$fmul)
    _fmul                                    0x00005371   Thumb Code   172  fmul.o(x$fpl$fmul)
    __aeabi_fsub                             0x00005421   Thumb Code     0  faddsub.o(x$fpl$fsub)
    _fsub                                    0x00005421   Thumb Code   204  faddsub.o(x$fpl$fsub)
    __I$use$fp                               0x000054f0   Number         0  usenofp.o(x$fpl$usenofp)
    F6x8                                     0x00005581   Data         552  oled_draw.o(.rodata.F6x8)
    Region$$Table$$Base                      0x000057f8   Number         0  anon$$obj.o(Region$$Table)
    Region$$Table$$Limit                     0x00005818   Number         0  anon$$obj.o(Region$$Table)
    Key_0                                    0x20200000   Data          24  exti.o(.data.Key_0)
    Key_1                                    0x20200018   Data          24  exti.o(.data.Key_1)
    Key_2                                    0x20200030   Data          24  exti.o(.data.Key_2)
    Waiting_Out_Black_Line_Time              0x20200048   Data           1  my_task.o(.data.Waiting_Out_Black_Line_Time)
    gI2C0_Device                             0x2020004c   Data         280  dev_i2c.o(.data.gI2C0_Device)
    not_on_drak_line_flag                    0x20200164   Data           1  dev_grayscale.o(.data.not_on_drak_line_flag)
    on_drak_line_flag                        0x20200165   Data           1  dev_grayscale.o(.data.on_drak_line_flag)
    __libspace_start                         0x20200168   Data          96  libspace.o(.bss)
    Aim_Angle                                0x202001c8   Data           8  my_task.o(.bss.Aim_Angle)
    __temporary_stack_top$libspace           0x202001c8   Data           0  libspace.o(.bss)
    Angle                                    0x202001d0   Data          48  main.o(.bss.Angle)
    Data_UART_2                              0x20200220   Data           1  uart.o(.bss.Data_UART_2)
    Follow_Angle_Count                       0x20200224   Data           4  my_task.o(.bss.Follow_Angle_Count)
    I2C0_buffer                              0x20200228   Data          28  dev_i2c.o(.bss.I2C0_buffer)
    ScreenBuffer                             0x20200244   Data        1024  oled_buffer.o(.bss.ScreenBuffer)
    U2_buffer                                0x20200644   Data          28  uart.o(.bss.U2_buffer)
    current_item                             0x20200674   Data           4  ui_.o(.bss.current_item)
    current_item_index                       0x20200678   Data           4  ui_.o(.bss.current_item_index)
    current_page                             0x2020067c   Data           4  ui_.o(.bss.current_page)
    delay_times                              0x20200680   Data           4  delay.o(.bss.delay_times)
    gPWM_Motor_LeftBackup                    0x20200690   Data         188  ti_msp_dl_config.o(.bss.gPWM_Motor_LeftBackup)
    gPWM_Motor_RightBackup                   0x2020074c   Data         120  ti_msp_dl_config.o(.bss.gPWM_Motor_RightBackup)
    gray_value                               0x202007c4   Data           4  dev_grayscale.o(.bss.gray_value)
    in_middle_flag                           0x202007c8   Data           1  dev_grayscale.o(.bss.in_middle_flag)
    led_state                                0x202007c9   Data           1  led.o(.bss.led_state)
    page1                                    0x202007e0   Data          16  ui_.o(.bss.page1)
    page2                                    0x202007f0   Data          16  ui_.o(.bss.page2)
    page3                                    0x20200800   Data          16  ui_.o(.bss.page3)
    page4                                    0x20200810   Data          16  ui_.o(.bss.page4)
    pid_follow_angle                         0x20200820   Data          36  my_task.o(.bss.pid_follow_angle)
    pid_follow_line                          0x20200844   Data          36  my_task.o(.bss.pid_follow_line)
    pid_follow_line_fast                     0x20200868   Data          36  my_task.o(.bss.pid_follow_line_fast)
    pid_turn_angle                           0x2020088c   Data          36  my_task.o(.bss.pid_turn_angle)
    s_tKey                                   0x202008b0   Data          13  exti.o(.bss.s_tKey)
    task                                     0x202008c0   Data           4  time.o(.bss.task)
    task1_index                              0x202008c4   Data           1  my_task.o(.bss.task1_index)
    task2_index                              0x202008cc   Data           1  my_task.o(.bss.task2_index)
    task3_index                              0x202008d0   Data           1  my_task.o(.bss.task3_index)
    task4_index                              0x202008d4   Data           1  my_task.o(.bss.task4_index)
    task5_index                              0x202008d8   Data           1  my_task.o(.bss.task5_index)
    the_std_time                             0x202008e0   Data           8  delay.o(.bss.the_std_time)



==============================================================================

Memory Map of the image

  Image Entry point : 0x000000c1

  Load Region LR_IROM1 (Base: 0x00000000, Size: 0x00005980, Max: 0x00020000, ABSOLUTE, COMPRESSED[0x00005848])

    Execution Region ER_IROM1 (Exec base: 0x00000000, Load base: 0x00000000, Size: 0x00005818, Max: 0x00020000, ABSOLUTE)

    Exec Addr    Load Addr    Size         Type   Attr      Idx    E Section Name        Object

    0x00000000   0x00000000   0x000000c0   Data   RO           14    RESET               startup_mspm0g350x_uvision.o
    0x000000c0   0x000000c0   0x00000008   Code   RO          820  * !!!main             c_p.l(__main.o)
    0x000000c8   0x000000c8   0x00000054   Code   RO         1249    !!!scatter          c_p.l(__scatter.o)
    0x0000011c   0x0000011c   0x00000004   PAD
    0x00000120   0x00000120   0x00000002   Code   RO         1250    !!handler_null      c_p.l(__scatter.o)
    0x00000122   0x00000122   0x00000006   PAD
    0x00000128   0x00000128   0x0000001c   Code   RO         1253    !!handler_zi        c_p.l(__scatter_zi.o)
    0x00000144   0x00000144   0x00000002   Code   RO          799    .ARM.Collect$$_printf_percent$$00000000  c_p.l(_printf_percent.o)
    0x00000146   0x00000146   0x0000000a   Code   RO          798    .ARM.Collect$$_printf_percent$$00000009  c_p.l(_printf_d.o)
    0x00000150   0x00000150   0x00000004   Code   RO          964    .ARM.Collect$$_printf_percent$$00000017  c_p.l(_printf_percent_end.o)
    0x00000154   0x00000154   0x00000002   Code   RO         1160    .ARM.Collect$$libinit$$00000000  c_p.l(libinit.o)
    0x00000156   0x00000156   0x00000000   Code   RO          979    .ARM.Collect$$libinit$$00000002  c_p.l(libinit2.o)
    0x00000156   0x00000156   0x00000000   Code   RO          981    .ARM.Collect$$libinit$$00000004  c_p.l(libinit2.o)
    0x00000156   0x00000156   0x00000000   Code   RO          983    .ARM.Collect$$libinit$$00000006  c_p.l(libinit2.o)
    0x00000156   0x00000156   0x00000008   Code   RO          984    .ARM.Collect$$libinit$$00000007  c_p.l(libinit2.o)
    0x0000015e   0x0000015e   0x00000000   Code   RO          986    .ARM.Collect$$libinit$$0000000C  c_p.l(libinit2.o)
    0x0000015e   0x0000015e   0x00000000   Code   RO          988    .ARM.Collect$$libinit$$0000000E  c_p.l(libinit2.o)
    0x0000015e   0x0000015e   0x00000000   Code   RO          990    .ARM.Collect$$libinit$$00000010  c_p.l(libinit2.o)
    0x0000015e   0x0000015e   0x00000000   Code   RO          993    .ARM.Collect$$libinit$$00000013  c_p.l(libinit2.o)
    0x0000015e   0x0000015e   0x00000000   Code   RO          995    .ARM.Collect$$libinit$$00000015  c_p.l(libinit2.o)
    0x0000015e   0x0000015e   0x00000000   Code   RO          997    .ARM.Collect$$libinit$$00000017  c_p.l(libinit2.o)
    0x0000015e   0x0000015e   0x00000000   Code   RO          999    .ARM.Collect$$libinit$$00000019  c_p.l(libinit2.o)
    0x0000015e   0x0000015e   0x00000000   Code   RO         1001    .ARM.Collect$$libinit$$0000001B  c_p.l(libinit2.o)
    0x0000015e   0x0000015e   0x00000000   Code   RO         1003    .ARM.Collect$$libinit$$0000001D  c_p.l(libinit2.o)
    0x0000015e   0x0000015e   0x00000000   Code   RO         1005    .ARM.Collect$$libinit$$0000001F  c_p.l(libinit2.o)
    0x0000015e   0x0000015e   0x00000000   Code   RO         1007    .ARM.Collect$$libinit$$00000021  c_p.l(libinit2.o)
    0x0000015e   0x0000015e   0x00000000   Code   RO         1009    .ARM.Collect$$libinit$$00000023  c_p.l(libinit2.o)
    0x0000015e   0x0000015e   0x00000000   Code   RO         1011    .ARM.Collect$$libinit$$00000025  c_p.l(libinit2.o)
    0x0000015e   0x0000015e   0x00000000   Code   RO         1013    .ARM.Collect$$libinit$$00000027  c_p.l(libinit2.o)
    0x0000015e   0x0000015e   0x00000000   Code   RO         1017    .ARM.Collect$$libinit$$0000002E  c_p.l(libinit2.o)
    0x0000015e   0x0000015e   0x00000000   Code   RO         1019    .ARM.Collect$$libinit$$00000030  c_p.l(libinit2.o)
    0x0000015e   0x0000015e   0x00000000   Code   RO         1021    .ARM.Collect$$libinit$$00000032  c_p.l(libinit2.o)
    0x0000015e   0x0000015e   0x00000000   Code   RO         1023    .ARM.Collect$$libinit$$00000034  c_p.l(libinit2.o)
    0x0000015e   0x0000015e   0x00000002   Code   RO         1024    .ARM.Collect$$libinit$$00000035  c_p.l(libinit2.o)
    0x00000160   0x00000160   0x00000002   Code   RO         1244    .ARM.Collect$$libshutdown$$00000000  c_p.l(libshutdown.o)
    0x00000162   0x00000162   0x00000000   Code   RO         1196    .ARM.Collect$$libshutdown$$00000002  c_p.l(libshutdown2.o)
    0x00000162   0x00000162   0x00000000   Code   RO         1198    .ARM.Collect$$libshutdown$$00000004  c_p.l(libshutdown2.o)
    0x00000162   0x00000162   0x00000000   Code   RO         1201    .ARM.Collect$$libshutdown$$00000007  c_p.l(libshutdown2.o)
    0x00000162   0x00000162   0x00000000   Code   RO         1204    .ARM.Collect$$libshutdown$$0000000A  c_p.l(libshutdown2.o)
    0x00000162   0x00000162   0x00000000   Code   RO         1206    .ARM.Collect$$libshutdown$$0000000C  c_p.l(libshutdown2.o)
    0x00000162   0x00000162   0x00000000   Code   RO         1209    .ARM.Collect$$libshutdown$$0000000F  c_p.l(libshutdown2.o)
    0x00000162   0x00000162   0x00000002   Code   RO         1210    .ARM.Collect$$libshutdown$$00000010  c_p.l(libshutdown2.o)
    0x00000164   0x00000164   0x00000000   Code   RO          876    .ARM.Collect$$rtentry$$00000000  c_p.l(__rtentry.o)
    0x00000164   0x00000164   0x00000000   Code   RO         1054    .ARM.Collect$$rtentry$$00000002  c_p.l(__rtentry2.o)
    0x00000164   0x00000164   0x00000006   Code   RO         1066    .ARM.Collect$$rtentry$$00000004  c_p.l(__rtentry4.o)
    0x0000016a   0x0000016a   0x00000000   Code   RO         1056    .ARM.Collect$$rtentry$$00000009  c_p.l(__rtentry2.o)
    0x0000016a   0x0000016a   0x00000004   Code   RO         1057    .ARM.Collect$$rtentry$$0000000A  c_p.l(__rtentry2.o)
    0x0000016e   0x0000016e   0x00000000   Code   RO         1059    .ARM.Collect$$rtentry$$0000000C  c_p.l(__rtentry2.o)
    0x0000016e   0x0000016e   0x00000008   Code   RO         1060    .ARM.Collect$$rtentry$$0000000D  c_p.l(__rtentry2.o)
    0x00000176   0x00000176   0x00000002   Code   RO         1176    .ARM.Collect$$rtexit$$00000000  c_p.l(rtexit.o)
    0x00000178   0x00000178   0x00000000   Code   RO         1218    .ARM.Collect$$rtexit$$00000002  c_p.l(rtexit2.o)
    0x00000178   0x00000178   0x00000004   Code   RO         1219    .ARM.Collect$$rtexit$$00000003  c_p.l(rtexit2.o)
    0x0000017c   0x0000017c   0x00000006   Code   RO         1220    .ARM.Collect$$rtexit$$00000004  c_p.l(rtexit2.o)
    0x00000182   0x00000182   0x00000002   PAD
    0x00000184   0x00000184   0x00000030   Code   RO           15    .text               startup_mspm0g350x_uvision.o
    0x000001b4   0x000001b4   0x00000062   Code   RO          710    .text               c_p.l(h1_alloc.o)
    0x00000216   0x00000216   0x0000004c   Code   RO          712    .text               c_p.l(h1_free.o)
    0x00000262   0x00000262   0x00000002   PAD
    0x00000264   0x00000264   0x0000002c   Code   RO          770    .text               c_p.l(__2sprintf.o)
    0x00000290   0x00000290   0x0000006c   Code   RO          776    .text               c_p.l(_printf_dec.o)
    0x000002fc   0x000002fc   0x00000188   Code   RO          795    .text               c_p.l(__printf_flags_ss_wp.o)
    0x00000484   0x00000484   0x00000012   Code   RO          806    .text               c_p.l(aeabi_memset4.o)
    0x00000496   0x00000496   0x00000040   Code   RO          808    .text               c_p.l(rt_memclr.o)
    0x000004d6   0x000004d6   0x00000006   Code   RO          818    .text               c_p.l(heapauxi.o)
    0x000004dc   0x000004dc   0x00000358   Code   RO          822    .text               fz_ps.l(daddsub.o)
    0x00000834   0x00000834   0x00000448   Code   RO          836    .text               fz_ps.l(ddiv.o)
    0x00000c7c   0x00000c7c   0x0000006c   Code   RO          839    .text               fz_ps.l(dfixi.o)
    0x00000ce8   0x00000ce8   0x00000058   Code   RO          841    .text               fz_ps.l(dflti.o)
    0x00000d40   0x00000d40   0x00000248   Code   RO          843    .text               fz_ps.l(dmul.o)
    0x00000f88   0x00000f88   0x0000004c   Code   RO          866    .text               fz_ps.l(ffixi.o)
    0x00000fd4   0x00000fd4   0x0000005e   Code   RO          870    .text               fz_ps.l(fflti.o)
    0x00001032   0x00001032   0x00000002   PAD
    0x00001034   0x00001034   0x00000008   Code   RO          884    .text               c_p.l(rt_heap_descriptor_intlibspace.o)
    0x0000103c   0x0000103c   0x00000004   Code   RO          886    .text               c_p.l(hguard.o)
    0x00001040   0x00001040   0x00000088   Code   RO          888    .text               c_p.l(init_alloc.o)
    0x000010c8   0x000010c8   0x0000000c   Code   RO          892    .text               c_p.l(h1_init.o)
    0x000010d4   0x000010d4   0x000000b0   Code   RO          910    .text               c_p.l(_printf_intcommon.o)
    0x00001184   0x00001184   0x00000030   Code   RO          914    .text               c_p.l(_printf_char_common.o)
    0x000011b4   0x000011b4   0x0000000a   Code   RO          916    .text               c_p.l(_sputc.o)
    0x000011be   0x000011be   0x00000028   Code   RO          974    .text               c_p.l(rtudiv10.o)
    0x000011e6   0x000011e6   0x00000002   PAD
    0x000011e8   0x000011e8   0x00000008   Code   RO         1050    .text               c_p.l(libspace.o)
    0x000011f0   0x000011f0   0x00000000   Code   RO         1072    .text               c_p.l(maybetermalloc1.o)
    0x000011f0   0x000011f0   0x00000034   Code   RO         1074    .text               c_p.l(h1_extend.o)
    0x00001224   0x00001224   0x0000000c   Code   RO         1095    .text               c_p.l(defsig_rtmem_outer.o)
    0x00001230   0x00001230   0x000000a0   Code   RO         1104    .text               fz_ps.l(dcmpin.o)
    0x000012d0   0x000012d0   0x00000064   Code   RO         1106    .text               fz_ps.l(fcmpin.o)
    0x00001334   0x00001334   0x00000002   Code   RO         1110    .text               c_p.l(use_no_semi.o)
    0x00001336   0x00001336   0x00000000   Code   RO         1112    .text               c_p.l(indicate_semi.o)
    0x00001336   0x00001336   0x0000003e   Code   RO         1113    .text               c_p.l(sys_stackheap_outer.o)
    0x00001374   0x00001374   0x00000010   Code   RO         1141    .text               c_p.l(exit.o)
    0x00001384   0x00001384   0x0000000c   Code   RO         1143    .text               c_p.l(defsig_exit.o)
    0x00001390   0x00001390   0x00000050   Code   RO         1149    .text               c_p.l(defsig_rtmem_inner.o)
    0x000013e0   0x000013e0   0x0000002e   Code   RO         1161    .text               fz_ps.l(cmpret.o)
    0x0000140e   0x0000140e   0x00000002   PAD
    0x00001410   0x00001410   0x00000014   Code   RO         1163    .text               fz_ps.l(dnan2.o)
    0x00001424   0x00001424   0x00000010   Code   RO         1165    .text               fz_ps.l(fnan2.o)
    0x00001434   0x00001434   0x0000000c   Code   RO         1171    .text               c_p.l(sys_exit.o)
    0x00001440   0x00001440   0x00000034   Code   RO         1189    .text               c_p.l(defsig_general.o)
    0x00001474   0x00001474   0x0000005e   Code   RO         1211    .text               fz_ps.l(retnan.o)
    0x000014d2   0x000014d2   0x0000000c   Code   RO         1213    .text               c_p.l(sys_wrch.o)
    0x000014de   0x000014de   0x0000003a   Code   RO         1247    .text               c_p.l(__dczerorl.o)
    0x00001518   0x00001518   0x000001de   Code   RO          341    .text.BUFF_pop_by_Protocol  buffer.o
    0x000016f6   0x000016f6   0x00000002   PAD
    0x000016f8   0x000016f8   0x00000154   Code   RO          419    .text.Car_Set_Direction  dev_car.o
    0x0000184c   0x0000184c   0x00000014   Code   RO          270    .text.ClearScreenBuffer  oled_buffer.o
    0x00001860   0x00001860   0x00000028   Code   RO          417    .text.DEV_CAR_Init  dev_car.o
    0x00001888   0x00001888   0x00000134   Code   RO          421    .text.DEV_CAR_Set_Speed  dev_car.o
    0x000019bc   0x000019bc   0x00000014   Code   RO          481    .text.DL_Common_delayCycles  driverlib.a(dl_common.o)
    0x000019d0   0x000019d0   0x00000028   Code   RO          487    .text.DL_Common_updateReg  driverlib.a(dl_i2c.o)
    0x000019f8   0x000019f8   0x00000028   Code   RO          571    .text.DL_Common_updateReg  driverlib.a(dl_timer.o)
    0x00001a20   0x00001a20   0x00000028   Code   RO          657    .text.DL_Common_updateReg  driverlib.a(dl_uart.o)
    0x00001a48   0x00001a48   0x00000056   Code   RO          491    .text.DL_I2C_fillControllerTXFIFO  driverlib.a(dl_i2c.o)
    0x00001a9e   0x00001a9e   0x00000026   Code   RO          497    .text.DL_I2C_flushControllerTXFIFO  driverlib.a(dl_i2c.o)
    0x00001ac4   0x00001ac4   0x00000020   Code   RO          501    .text.DL_I2C_isControllerTXFIFOEmpty  driverlib.a(dl_i2c.o)
    0x00001ae4   0x00001ae4   0x0000001c   Code   RO          493    .text.DL_I2C_isControllerTXFIFOFull  driverlib.a(dl_i2c.o)
    0x00001b00   0x00001b00   0x00000034   Code   RO          485    .text.DL_I2C_setClockConfig  driverlib.a(dl_i2c.o)
    0x00001b34   0x00001b34   0x00000014   Code   RO          499    .text.DL_I2C_startFlushControllerTXFIFO  driverlib.a(dl_i2c.o)
    0x00001b48   0x00001b48   0x00000018   Code   RO          503    .text.DL_I2C_stopFlushControllerTXFIFO  driverlib.a(dl_i2c.o)
    0x00001b60   0x00001b60   0x00000018   Code   RO          495    .text.DL_I2C_transmitControllerData  driverlib.a(dl_i2c.o)
    0x00001b78   0x00001b78   0x000000f0   Code   RO          639    .text.DL_TimerA_initPWMMode  driverlib.a(dl_timer.o)
    0x00001c68   0x00001c68   0x00000118   Code   RO          583    .text.DL_Timer_initPWMMode  driverlib.a(dl_timer.o)
    0x00001d80   0x00001d80   0x00000094   Code   RO          553    .text.DL_Timer_initTimerMode  driverlib.a(dl_timer.o)
    0x00001e14   0x00001e14   0x00000034   Code   RO          613    .text.DL_Timer_setCaptCompUpdateMethod  driverlib.a(dl_timer.o)
    0x00001e48   0x00001e48   0x00000038   Code   RO          585    .text.DL_Timer_setCaptureCompareAction  driverlib.a(dl_timer.o)
    0x00001e80   0x00001e80   0x00000040   Code   RO          561    .text.DL_Timer_setCaptureCompareCtl  driverlib.a(dl_timer.o)
    0x00001ec0   0x00001ec0   0x00000038   Code   RO          567    .text.DL_Timer_setCaptureCompareInput  driverlib.a(dl_timer.o)
    0x00001ef8   0x00001ef8   0x0000003c   Code   RO          587    .text.DL_Timer_setCaptureCompareOutCtl  driverlib.a(dl_timer.o)
    0x00001f34   0x00001f34   0x0000002c   Code   RO          559    .text.DL_Timer_setCaptureCompareValue  driverlib.a(dl_timer.o)
    0x00001f60   0x00001f60   0x00000030   Code   RO          549    .text.DL_Timer_setClockConfig  driverlib.a(dl_timer.o)
    0x00001f90   0x00001f90   0x00000020   Code   RO          557    .text.DL_Timer_setCounterValueAfterEnable  driverlib.a(dl_timer.o)
    0x00001fb0   0x00001fb0   0x00000018   Code   RO          555    .text.DL_Timer_setLoadValue  driverlib.a(dl_timer.o)
    0x00001fc8   0x00001fc8   0x00000016   Code   RO          655    .text.DL_UART_disable  driverlib.a(dl_uart.o)
    0x00001fde   0x00001fde   0x00000002   PAD
    0x00001fe0   0x00001fe0   0x00000058   Code   RO          653    .text.DL_UART_init  driverlib.a(dl_uart.o)
    0x00002038   0x00002038   0x00000024   Code   RO          659    .text.DL_UART_setClockConfig  driverlib.a(dl_uart.o)
    0x0000205c   0x0000205c   0x00000064   Code   RO          289    .text.DrawChar      oled_draw.o
    0x000020c0   0x000020c0   0x0000003c   Code   RO          291    .text.DrawString    oled_draw.o
    0x000020fc   0x000020fc   0x00000010   Code   RO          142    .text.EXTI_Init     exti.o
    0x0000210c   0x0000210c   0x0000019c   Code   RO          154    .text.GROUP1_IRQHandler  exti.o
    0x000022a8   0x000022a8   0x00000020   Code   RO          316    .text.I2C0_IRQHandler  dev_i2c.o
    0x000022c8   0x000022c8   0x000001e4   Code   RO          314    .text.I2C_WriteArray2Register_With_Blocking  dev_i2c.o
    0x000024ac   0x000024ac   0x0000012c   Code   RO          312    .text.I2C_WriteArray_With_Blocking  dev_i2c.o
    0x000025d8   0x000025d8   0x00000034   Code   RO          310    .text.I2C__init__   dev_i2c.o
    0x0000260c   0x0000260c   0x0000001e   Code   RO          329    .text.Iinitial_BUFF  buffer.o
    0x0000262a   0x0000262a   0x00000002   PAD
    0x0000262c   0x0000262c   0x00000010   Code   RO          171    .text.LED_OFF       led.o
    0x0000263c   0x0000263c   0x0000001c   Code   RO          169    .text.LED_ON        led.o
    0x00002658   0x00002658   0x00000068   Code   RO          195    .text.OLED_CLS      oled.o
    0x000026c0   0x000026c0   0x00000060   Code   RO          193    .text.OLED_FILL     oled.o
    0x00002720   0x00002720   0x000001d4   Code   RO          189    .text.OLED_Init     oled.o
    0x000028f4   0x000028f4   0x0000001e   Code   RO          371    .text.PID_Initialize  pid.o
    0x00002912   0x00002912   0x0000007e   Code   RO          373    .text.PID_Realize   pid.o
    0x00002990   0x00002990   0x00000128   Code   RO           87    .text.SYSCFG_DL_GPIO_init  ti_msp_dl_config.o
    0x00002ab8   0x00002ab8   0x00000084   Code   RO           97    .text.SYSCFG_DL_I2C0_init  ti_msp_dl_config.o
    0x00002b3c   0x00002b3c   0x000000a0   Code   RO           91    .text.SYSCFG_DL_PWM_Motor_Left_init  ti_msp_dl_config.o
    0x00002bdc   0x00002bdc   0x00000080   Code   RO           93    .text.SYSCFG_DL_PWM_Motor_Right_init  ti_msp_dl_config.o
    0x00002c5c   0x00002c5c   0x00000060   Code   RO           89    .text.SYSCFG_DL_SYSCTL_init  ti_msp_dl_config.o
    0x00002cbc   0x00002cbc   0x00000030   Code   RO          101    .text.SYSCFG_DL_SYSTICK_init  ti_msp_dl_config.o
    0x00002cec   0x00002cec   0x0000004c   Code   RO           95    .text.SYSCFG_DL_TIMER_0_init  ti_msp_dl_config.o
    0x00002d38   0x00002d38   0x00000080   Code   RO           99    .text.SYSCFG_DL_UART2_init  ti_msp_dl_config.o
    0x00002db8   0x00002db8   0x00000040   Code   RO           83    .text.SYSCFG_DL_init  ti_msp_dl_config.o
    0x00002df8   0x00002df8   0x00000060   Code   RO           85    .text.SYSCFG_DL_initPower  ti_msp_dl_config.o
    0x00002e58   0x00002e58   0x00000024   Code   RO          128    .text.SysTick_Handler  delay.o
    0x00002e7c   0x00002e7c   0x0000002c   Code   RO          227    .text.TIMG0_IRQHandler  time.o
    0x00002ea8   0x00002ea8   0x00000030   Code   RO          242    .text.UART2_IRQHandler  uart.o
    0x00002ed8   0x00002ed8   0x00000024   Code   RO          236    .text.UART_NVIC_Init  uart.o
    0x00002efc   0x00002efc   0x00000020   Code   RO          435    .text.UI_back       ui_.o
    0x00002f1c   0x00002f1c   0x0000002c   Code   RO          443    .text.UI_enter      ui_.o
    0x00002f48   0x00002f48   0x00000030   Code   RO          439    .text.UI_next       ui_.o
    0x00002f78   0x00002f78   0x00000034   Code   RO          441    .text.UI_prev       ui_.o
    0x00002fac   0x00002fac   0x00000068   Code   RO          437    .text.UI_updata     ui_.o
    0x00003014   0x00003014   0x0000000c   Code   RO          278    .text.UpdateScreenDisplay  oled_buffer.o
    0x00003020   0x00003020   0x00000010   Code   RO          274    .text.WriteByteBuffer  oled_buffer.o
    0x00003030   0x00003030   0x00000048   Code   RO          331    .text.Write_BUFF    buffer.o
    0x00003078   0x00003078   0x00000030   Code   RO          457    .text.add_time      ui_.o
    0x000030a8   0x000030a8   0x00000018   Code   RO          455    .text.angle_tuning_init  ui_.o
    0x000030c0   0x000030c0   0x00000024   Code   RO          146    .text.bsp_GetKey    exti.o
    0x000030e4   0x000030e4   0x00000024   Code   RO          126    .text.delay_ms      delay.o
    0x00003108   0x00003108   0x00000094   Code   RO           28    .text.follow_angle  my_task.o
    0x0000319c   0x0000319c   0x00000108   Code   RO           22    .text.follow_angle_FAST  my_task.o
    0x000032a4   0x000032a4   0x00000114   Code   RO           26    .text.follow_line   my_task.o
    0x000033b8   0x000033b8   0x00000088   Code   RO           24    .text.init_task     my_task.o
    0x00003440   0x00003440   0x00000170   Code   RO            2    .text.main          main.o
    0x000035b0   0x000035b0   0x00000030   Code   RO          459    .text.minus_time    ui_.o
    0x000035e0   0x000035e0   0x000000e8   Code   RO          353    .text.read_grayscale  dev_grayscale.o
    0x000036c8   0x000036c8   0x00000110   Code   RO           32    .text.task1         my_task.o
    0x000037d8   0x000037d8   0x000004f0   Code   RO           34    .text.task2         my_task.o
    0x00003cc8   0x00003cc8   0x000005c0   Code   RO           36    .text.task3         my_task.o
    0x00004288   0x00004288   0x00000468   Code   RO           38    .text.task4         my_task.o
    0x000046f0   0x000046f0   0x0000051c   Code   RO           40    .text.task5         my_task.o
    0x00004c0c   0x00004c0c   0x00000028   Code   RO          453    .text.task_five_init  ui_.o
    0x00004c34   0x00004c34   0x00000028   Code   RO          451    .text.task_four_init  ui_.o
    0x00004c5c   0x00004c5c   0x00000024   Code   RO          445    .text.task_one_init  ui_.o
    0x00004c80   0x00004c80   0x00000034   Code   RO          449    .text.task_three_init  ui_.o
    0x00004cb4   0x00004cb4   0x0000002c   Code   RO          447    .text.task_two_init  ui_.o
    0x00004ce0   0x00004ce0   0x00000208   Code   RO          461    .text.test1         ui_.o
    0x00004ee8   0x00004ee8   0x00000164   Code   RO           30    .text.turn_angle    my_task.o
    0x0000504c   0x0000504c   0x00000090   Code   RO           42    .text.turn_angle_tuning  my_task.o
    0x000050dc   0x000050dc   0x00000016   Code   RO          825    i._dgeq             fz_ps.l(dcmp.o)
    0x000050f2   0x000050f2   0x00000016   Code   RO          826    i._dgr              fz_ps.l(dcmp.o)
    0x00005108   0x00005108   0x0000001a   Code   RO          827    i._dleq             fz_ps.l(dcmp.o)
    0x00005122   0x00005122   0x00000016   Code   RO          828    i._dls              fz_ps.l(dcmp.o)
    0x00005138   0x00005138   0x00000016   Code   RO          853    i._fgr              fz_ps.l(fcmp.o)
    0x0000514e   0x0000514e   0x00000016   Code   RO          855    i._fls              fz_ps.l(fcmp.o)
    0x00005164   0x00005164   0x0000000e   Code   RO          788    i._is_digit         c_p.l(__printf_wp.o)
    0x00005172   0x00005172   0x00000002   PAD
    0x00005174   0x00005174   0x00000064   Code   RO         1027    x$fpl$dgeqf         fz_ps.l(dgef.o)
    0x000051d8   0x000051d8   0x00000064   Code   RO         1029    x$fpl$dleqf         fz_ps.l(dlef.o)
    0x0000523c   0x0000523c   0x0000008c   Code   RO          845    x$fpl$fadd          fz_ps.l(faddsub.o)
    0x000052c8   0x000052c8   0x00000054   Code   RO         1033    x$fpl$fgeqf         fz_ps.l(fgef.o)
    0x0000531c   0x0000531c   0x00000054   Code   RO         1035    x$fpl$fleqf         fz_ps.l(flef.o)
    0x00005370   0x00005370   0x000000b0   Code   RO          872    x$fpl$fmul          fz_ps.l(fmul.o)
    0x00005420   0x00005420   0x000000d0   Code   RO          847    x$fpl$fsub          fz_ps.l(faddsub.o)
    0x000054f0   0x000054f0   0x00000000   Code   RO         1045    x$fpl$usenofp       fz_ps.l(usenofp.o)
    0x000054f0   0x000054f0   0x00000011   Data   RO          796    .constdata          c_p.l(__printf_flags_ss_wp.o)
    0x00005501   0x00005501   0x00000080   Data   RO          837    .constdata          fz_ps.l(ddiv.o)
    0x00005581   0x00005581   0x00000228   Data   RO          299    .rodata.F6x8        oled_draw.o
    0x000057a9   0x000057a9   0x00000002   Data   RO          115    .rodata.gI2C0ClockConfig  ti_msp_dl_config.o
    0x000057ab   0x000057ab   0x00000003   Data   RO          109    .rodata.gPWM_Motor_LeftClockConfig  ti_msp_dl_config.o
    0x000057ae   0x000057ae   0x00000002   PAD
    0x000057b0   0x000057b0   0x00000008   Data   RO          110    .rodata.gPWM_Motor_LeftConfig  ti_msp_dl_config.o
    0x000057b8   0x000057b8   0x00000003   Data   RO          111    .rodata.gPWM_Motor_RightClockConfig  ti_msp_dl_config.o
    0x000057bb   0x000057bb   0x00000001   PAD
    0x000057bc   0x000057bc   0x00000008   Data   RO          112    .rodata.gPWM_Motor_RightConfig  ti_msp_dl_config.o
    0x000057c4   0x000057c4   0x00000003   Data   RO          113    .rodata.gTIMER_0ClockConfig  ti_msp_dl_config.o
    0x000057c7   0x000057c7   0x00000001   PAD
    0x000057c8   0x000057c8   0x00000014   Data   RO          114    .rodata.gTIMER_0TimerConfig  ti_msp_dl_config.o
    0x000057dc   0x000057dc   0x00000002   Data   RO          116    .rodata.gUART2ClockConfig  ti_msp_dl_config.o
    0x000057de   0x000057de   0x0000000a   Data   RO          117    .rodata.gUART2Config  ti_msp_dl_config.o
    0x000057e8   0x000057e8   0x0000000a   Data   RO          467    .rodata.str1.1      ui_.o
    0x000057f2   0x000057f2   0x00000006   PAD
    0x000057f8   0x000057f8   0x00000020   Data   RO         1246    Region$$Table       anon$$obj.o


    Execution Region RW_IRAM2 (Exec base: 0x20200000, Load base: 0x00005818, Size: 0x000018f0, Max: 0x00008000, ABSOLUTE, COMPRESSED[0x00000030])

    Exec Addr    Load Addr    Size         Type   Attr      Idx    E Section Name        Object

    0x20200000   COMPRESSED   0x00000018   Data   RW          157    .data.Key_0         exti.o
    0x20200018   COMPRESSED   0x00000018   Data   RW          158    .data.Key_1         exti.o
    0x20200030   COMPRESSED   0x00000018   Data   RW          159    .data.Key_2         exti.o
    0x20200048   COMPRESSED   0x00000001   Data   RW           44    .data.Waiting_Out_Black_Line_Time  my_task.o
    0x20200049   COMPRESSED   0x00000003   PAD
    0x2020004c   COMPRESSED   0x00000118   Data   RW          319    .data.gI2C0_Device  dev_i2c.o
    0x20200164   COMPRESSED   0x00000001   Data   RW          357    .data.not_on_drak_line_flag  dev_grayscale.o
    0x20200165   COMPRESSED   0x00000001   Data   RW          358    .data.on_drak_line_flag  dev_grayscale.o
    0x20200166   COMPRESSED   0x00000002   PAD
    0x20200168        -       0x00000060   Zero   RW         1051    .bss                c_p.l(libspace.o)
    0x202001c8        -       0x00000008   Zero   RW           50    .bss.Aim_Angle      my_task.o
    0x202001d0        -       0x00000030   Zero   RW            4    .bss.Angle          main.o
    0x20200200        -       0x00000010   Zero   RW           56    .bss.CCR            my_task.o
    0x20200210        -       0x00000004   Zero   RW          423    .bss.DEV_CAR_Set_Speed.CCR_.0  dev_car.o
    0x20200214        -       0x00000004   Zero   RW          424    .bss.DEV_CAR_Set_Speed.CCR_.1  dev_car.o
    0x20200218        -       0x00000004   Zero   RW          425    .bss.DEV_CAR_Set_Speed.CCR_.2  dev_car.o
    0x2020021c        -       0x00000004   Zero   RW          426    .bss.DEV_CAR_Set_Speed.CCR_.3  dev_car.o
    0x20200220        -       0x00000001   Zero   RW          249    .bss.Data_UART_2    uart.o
    0x20200221   COMPRESSED   0x00000003   PAD
    0x20200224        -       0x00000004   Zero   RW           51    .bss.Follow_Angle_Count  my_task.o
    0x20200228        -       0x0000001c   Zero   RW          318    .bss.I2C0_buffer    dev_i2c.o
    0x20200244        -       0x00000400   Zero   RW          280    .bss.ScreenBuffer   oled_buffer.o
    0x20200644        -       0x0000001c   Zero   RW          246    .bss.U2_buffer      uart.o
    0x20200660        -       0x00000014   Zero   RW          466    .bss.add_time.str   ui_.o
    0x20200674        -       0x00000004   Zero   RW          465    .bss.current_item   ui_.o
    0x20200678        -       0x00000004   Zero   RW          463    .bss.current_item_index  ui_.o
    0x2020067c        -       0x00000004   Zero   RW          464    .bss.current_page   ui_.o
    0x20200680        -       0x00000004   Zero   RW          130    .bss.delay_times    delay.o
    0x20200684   COMPRESSED   0x00000004   PAD
    0x20200688        -       0x00000008   Zero   RW           61    .bss.follow_line.MAX_CCR  my_task.o
    0x20200690        -       0x000000bc   Zero   RW          107    .bss.gPWM_Motor_LeftBackup  ti_msp_dl_config.o
    0x2020074c        -       0x00000078   Zero   RW          108    .bss.gPWM_Motor_RightBackup  ti_msp_dl_config.o
    0x202007c4        -       0x00000004   Zero   RW          359    .bss.gray_value     dev_grayscale.o
    0x202007c8        -       0x00000001   Zero   RW          362    .bss.in_middle_flag  dev_grayscale.o
    0x202007c9        -       0x00000001   Zero   RW          173    .bss.led_state      led.o
    0x202007ca        -       0x00000014   Zero   RW          468    .bss.minus_time.str  ui_.o
    0x202007de   COMPRESSED   0x00000002   PAD
    0x202007e0        -       0x00000010   Zero   RW          469    .bss.page1          ui_.o
    0x202007f0        -       0x00000010   Zero   RW          470    .bss.page2          ui_.o
    0x20200800        -       0x00000010   Zero   RW          471    .bss.page3          ui_.o
    0x20200810        -       0x00000010   Zero   RW          472    .bss.page4          ui_.o
    0x20200820        -       0x00000024   Zero   RW           59    .bss.pid_follow_angle  my_task.o
    0x20200844        -       0x00000024   Zero   RW           58    .bss.pid_follow_line  my_task.o
    0x20200868        -       0x00000024   Zero   RW           57    .bss.pid_follow_line_fast  my_task.o
    0x2020088c        -       0x00000024   Zero   RW           60    .bss.pid_turn_angle  my_task.o
    0x202008b0        -       0x0000000d   Zero   RW          156    .bss.s_tKey         exti.o
    0x202008bd   COMPRESSED   0x00000003   PAD
    0x202008c0        -       0x00000004   Zero   RW          229    .bss.task           time.o
    0x202008c4        -       0x00000001   Zero   RW           45    .bss.task1_index    my_task.o
    0x202008c5        -       0x00000001   Zero   RW           63    .bss.task2.count_time  my_task.o
    0x202008c6   COMPRESSED   0x00000002   PAD
    0x202008c8        -       0x00000004   Zero   RW           64    .bss.task2.last_count_time  my_task.o
    0x202008cc        -       0x00000001   Zero   RW           46    .bss.task2_index    my_task.o
    0x202008cd        -       0x00000001   Zero   RW           65    .bss.task3.count_time  my_task.o
    0x202008ce        -       0x00000001   Zero   RW           66    .bss.task3.last_count_time  my_task.o
    0x202008cf        -       0x00000001   Zero   RW           67    .bss.task3.turn_count  my_task.o
    0x202008d0        -       0x00000001   Zero   RW           47    .bss.task3_index    my_task.o
    0x202008d1        -       0x00000001   Zero   RW           68    .bss.task4.count_time  my_task.o
    0x202008d2        -       0x00000001   Zero   RW           69    .bss.task4.last_count_time  my_task.o
    0x202008d3        -       0x00000001   Zero   RW           70    .bss.task4.turn_count  my_task.o
    0x202008d4        -       0x00000001   Zero   RW           48    .bss.task4_index    my_task.o
    0x202008d5        -       0x00000001   Zero   RW           71    .bss.task5.count_time  my_task.o
    0x202008d6        -       0x00000001   Zero   RW           72    .bss.task5.last_count_time  my_task.o
    0x202008d7        -       0x00000001   Zero   RW           73    .bss.task5.turn_count  my_task.o
    0x202008d8        -       0x00000001   Zero   RW           49    .bss.task5_index    my_task.o
    0x202008d9   COMPRESSED   0x00000007   PAD
    0x202008e0        -       0x00000008   Zero   RW          131    .bss.the_std_time   delay.o
    0x202008e8        -       0x00000004   Zero   RW           62    .bss.turn_angle.I_item  my_task.o
    0x202008ec        -       0x00000004   Zero   RW           74    .bss.turn_angle_tuning.count  my_task.o
    0x202008f0        -       0x00000800   Zero   RW           13    HEAP                startup_mspm0g350x_uvision.o
    0x202010f0        -       0x00000800   Zero   RW           12    STACK               startup_mspm0g350x_uvision.o



  Load Region LR_BCR (Base: 0x41c00000, Size: 0x00000000, Max: 0x00000100, ABSOLUTE)

    Execution Region BCR_CONFIG (Exec base: 0x41c00000, Load base: 0x41c00000, Size: 0x00000000, Max: 0x00000080, ABSOLUTE)

    **** No section assigned to this execution region ****



  Load Region LR_BSL (Base: 0x41c00100, Size: 0x00000000, Max: 0x00000100, ABSOLUTE)

    Execution Region BSL_CONFIG (Exec base: 0x41c00100, Load base: 0x41c00100, Size: 0x00000000, Max: 0x00000080, ABSOLUTE)

    **** No section assigned to this execution region ****


==============================================================================

Image component sizes


      Code (inc. data)   RO Data    RW Data    ZI Data      Debug   Object Name

       580          0          0          0          0      18381   buffer.o
        72          8          0          0         12        961   delay.o
       688         96          0          0         16       9361   dev_car.o
       232         12          0          2          5       5025   dev_grayscale.o
       868         40          0        280         28      12026   dev_i2c.o
       464         36          0         72         13       7358   exti.o
        44          8          0          0          1       3717   led.o
       368         40          0          0         48       3302   main.o
      6768        816          0          1        207      11067   my_task.o
       668          4          0          0          0      14755   oled.o
        48          8          0          0       1024       1643   oled_buffer.o
       160          4        552          0          0       3391   oled_draw.o
       156          0          0          0          0       2264   pid.o
        48         22        192          0       4096        700   startup_mspm0g350x_uvision.o
      1224        220         59          0        308      36902   ti_msp_dl_config.o
        44          8          0          0          4       3794   time.o
        84         24          0          0         29       6911   uart.o
      1132        332         10          0        116       3180   ui_.o

    ----------------------------------------------------------------------
     13652       1678        855        360       5928     144738   Object Totals
         0          0         32          0          0          0   (incl. Generated)
         4          0         10          5         21          0   (incl. Padding)

    ----------------------------------------------------------------------

      Code (inc. data)   RO Data    RW Data    ZI Data      Debug   Library Member Name

        44          4          0          0          0         84   __2sprintf.o
        58          0          0          0          0          0   __dczerorl.o
         8          0          0          0          0         68   __main.o
       392          6         17          0          0         76   __printf_flags_ss_wp.o
        14          0          0          0          0         60   __printf_wp.o
         0          0          0          0          0          0   __rtentry.o
        12          0          0          0          0          0   __rtentry2.o
         6          0          0          0          0          0   __rtentry4.o
        86         10          0          0          0          0   __scatter.o
        28          0          0          0          0          0   __scatter_zi.o
        48          6          0          0          0         88   _printf_char_common.o
        10          0          0          0          0          0   _printf_d.o
       108         18          0          0          0         76   _printf_dec.o
       176          0          0          0          0         84   _printf_intcommon.o
         2          0          0          0          0          0   _printf_percent.o
         4          0          0          0          0          0   _printf_percent_end.o
        10          0          0          0          0         60   _sputc.o
        18          0          0          0          0         68   aeabi_memset4.o
        12          0          0          0          0         68   defsig_exit.o
        52          0          0          0          0         72   defsig_general.o
        80         58          0          0          0         68   defsig_rtmem_inner.o
        12          0          0          0          0         68   defsig_rtmem_outer.o
        16          0          0          0          0         68   exit.o
        98          0          0          0          0         72   h1_alloc.o
        52          0          0          0          0         68   h1_extend.o
        76          0          0          0          0         72   h1_free.o
        12          0          0          0          0         76   h1_init.o
         6          0          0          0          0        136   heapauxi.o
         4          0          0          0          0        120   hguard.o
         0          0          0          0          0          0   indicate_semi.o
       136          0          0          0          0        160   init_alloc.o
         2          0          0          0          0          0   libinit.o
        10          0          0          0          0          0   libinit2.o
         2          0          0          0          0          0   libshutdown.o
         2          0          0          0          0          0   libshutdown2.o
         8          4          0          0         96         68   libspace.o
         0          0          0          0          0          0   maybetermalloc1.o
         8          4          0          0          0         68   rt_heap_descriptor_intlibspace.o
        64          0          0          0          0        108   rt_memclr.o
         2          0          0          0          0          0   rtexit.o
        10          0          0          0          0          0   rtexit2.o
        40          0          0          0          0         60   rtudiv10.o
        12          4          0          0          0         60   sys_exit.o
        62          0          0          0          0         80   sys_stackheap_outer.o
        12          0          0          0          0         68   sys_wrch.o
         2          0          0          0          0         68   use_no_semi.o
        20          0          0          0          0         40   dl_common.o
       344         16          0          0          0        728   dl_i2c.o
      1144         80          0          0          0       1220   dl_timer.o
       186         12          0          0          0        636   dl_uart.o
        46          0          0          0          0         60   cmpret.o
       856         20          0          0          0        208   daddsub.o
        92          0          0          0          0        272   dcmp.o
       160          6          0          0          0         76   dcmpin.o
      1096         26        128          0          0        112   ddiv.o
       108         10          0          0          0         72   dfixi.o
        88          0          0          0          0         92   dflti.o
       100          4          0          0          0         92   dgef.o
       100          4          0          0          0         92   dlef.o
       584         26          0          0          0         84   dmul.o
        20          6          0          0          0         68   dnan2.o
       348          8          0          0          0        160   faddsub.o
        44          0          0          0          0        136   fcmp.o
       100          4          0          0          0         68   fcmpin.o
        76          0          0          0          0         68   ffixi.o
        94          0          0          0          0         92   fflti.o
        84          4          0          0          0         76   fgef.o
        84          4          0          0          0         76   flef.o
       176          4          0          0          0         80   fmul.o
        16          6          0          0          0         68   fnan2.o
        94          0          0          0          0         68   retnan.o
         0          0          0          0          0          0   usenofp.o

    ----------------------------------------------------------------------
      7900        358        145          0         96       7036   Library Totals
        24          4          0          0          0          0   (incl. Padding)

    ----------------------------------------------------------------------

      Code (inc. data)   RO Data    RW Data    ZI Data      Debug   Library Name

      1816        114         17          0         96       2292   c_p.l
      1694        108          0          0          0       2624   driverlib.a
      4366        132        128          0          0       2120   fz_ps.l

    ----------------------------------------------------------------------
      7900        358        145          0         96       7036   Library Totals

    ----------------------------------------------------------------------

==============================================================================


      Code (inc. data)   RO Data    RW Data    ZI Data      Debug   

     21552       2036       1000        360       6024     149134   Grand Totals
     21552       2036       1000         48       6024     149134   ELF Image Totals (compressed)
     21552       2036       1000         48          0          0   ROM Totals

==============================================================================

    Total RO  Size (Code + RO Data)                22552 (  22.02kB)
    Total RW  Size (RW Data + ZI Data)              6384 (   6.23kB)
    Total ROM Size (Code + RO Data + RW Data)      22600 (  22.07kB)

==============================================================================

